ARM GAS  C:\Users\shkoli\AppData\Local\Temp\cc5ETAli.s 			page 1


   1              		.syntax unified
   2              		.cpu cortex-m3
   3              		.fpu softvfp
   4              		.eabi_attribute 20, 1
   5              		.eabi_attribute 21, 1
   6              		.eabi_attribute 23, 3
   7              		.eabi_attribute 24, 1
   8              		.eabi_attribute 25, 1
   9              		.eabi_attribute 26, 1
  10              		.eabi_attribute 30, 6
  11              		.eabi_attribute 34, 1
  12              		.eabi_attribute 18, 4
  13              		.thumb
  14              		.syntax unified
  15              		.file	"CharLCD_1.c"
  16              		.text
  17              	.Ltext0:
  18              		.cfi_sections	.debug_frame
  19              		.global	CharLCD_1_enableState
  20              		.bss
  21              		.type	CharLCD_1_enableState, %object
  22              		.size	CharLCD_1_enableState, 1
  23              	CharLCD_1_enableState:
  24 0000 00       		.space	1
  25              		.global	CharLCD_1_initVar
  26              		.type	CharLCD_1_initVar, %object
  27              		.size	CharLCD_1_initVar, 1
  28              	CharLCD_1_initVar:
  29 0001 00       		.space	1
  30              		.section	.text.CharLCD_1_Init,"ax",%progbits
  31              		.align	2
  32              		.global	CharLCD_1_Init
  33              		.thumb
  34              		.thumb_func
  35              		.type	CharLCD_1_Init, %function
  36              	CharLCD_1_Init:
  37              	.LFB0:
  38              		.file 1 "Generated_Source\\PSoC5\\CharLCD_1.c"
   1:Generated_Source\PSoC5/CharLCD_1.c **** /*******************************************************************************
   2:Generated_Source\PSoC5/CharLCD_1.c **** * File Name: CharLCD_1.c
   3:Generated_Source\PSoC5/CharLCD_1.c **** * Version 2.20
   4:Generated_Source\PSoC5/CharLCD_1.c **** *
   5:Generated_Source\PSoC5/CharLCD_1.c **** * Description:
   6:Generated_Source\PSoC5/CharLCD_1.c **** *  This file provides source code for the Character LCD component's API.
   7:Generated_Source\PSoC5/CharLCD_1.c **** *
   8:Generated_Source\PSoC5/CharLCD_1.c **** * Note:
   9:Generated_Source\PSoC5/CharLCD_1.c **** *
  10:Generated_Source\PSoC5/CharLCD_1.c **** ********************************************************************************
  11:Generated_Source\PSoC5/CharLCD_1.c **** * Copyright 2008-2014, Cypress Semiconductor Corporation.  All rights reserved.
  12:Generated_Source\PSoC5/CharLCD_1.c **** * You may use this file only in accordance with the license, terms, conditions,
  13:Generated_Source\PSoC5/CharLCD_1.c **** * disclaimers, and limitations in the end user license agreement accompanying
  14:Generated_Source\PSoC5/CharLCD_1.c **** * the software package with which this file was provided.
  15:Generated_Source\PSoC5/CharLCD_1.c **** *******************************************************************************/
  16:Generated_Source\PSoC5/CharLCD_1.c **** 
  17:Generated_Source\PSoC5/CharLCD_1.c **** #include "CyLib.h"
  18:Generated_Source\PSoC5/CharLCD_1.c **** #include "CharLCD_1.h"
  19:Generated_Source\PSoC5/CharLCD_1.c **** 
ARM GAS  C:\Users\shkoli\AppData\Local\Temp\cc5ETAli.s 			page 2


  20:Generated_Source\PSoC5/CharLCD_1.c **** 
  21:Generated_Source\PSoC5/CharLCD_1.c **** static void CharLCD_1_WrDatNib(uint8 nibble) ;
  22:Generated_Source\PSoC5/CharLCD_1.c **** static void CharLCD_1_WrCntrlNib(uint8 nibble) ;
  23:Generated_Source\PSoC5/CharLCD_1.c **** 
  24:Generated_Source\PSoC5/CharLCD_1.c **** /* Stores state of component. Indicates whether component is or not
  25:Generated_Source\PSoC5/CharLCD_1.c **** * in enable state.
  26:Generated_Source\PSoC5/CharLCD_1.c **** */
  27:Generated_Source\PSoC5/CharLCD_1.c **** uint8 CharLCD_1_enableState = 0u;
  28:Generated_Source\PSoC5/CharLCD_1.c **** 
  29:Generated_Source\PSoC5/CharLCD_1.c **** uint8 CharLCD_1_initVar = 0u;
  30:Generated_Source\PSoC5/CharLCD_1.c **** 
  31:Generated_Source\PSoC5/CharLCD_1.c **** 
  32:Generated_Source\PSoC5/CharLCD_1.c **** /*******************************************************************************
  33:Generated_Source\PSoC5/CharLCD_1.c **** * Function Name: CharLCD_1_Init
  34:Generated_Source\PSoC5/CharLCD_1.c **** ********************************************************************************
  35:Generated_Source\PSoC5/CharLCD_1.c **** *
  36:Generated_Source\PSoC5/CharLCD_1.c **** * Summary:
  37:Generated_Source\PSoC5/CharLCD_1.c **** *  Performs initialization required for the components normal work.
  38:Generated_Source\PSoC5/CharLCD_1.c **** *  This function initializes the LCD hardware module as follows:
  39:Generated_Source\PSoC5/CharLCD_1.c **** *        Enables a 4-bit interface
  40:Generated_Source\PSoC5/CharLCD_1.c **** *        Clears the display
  41:Generated_Source\PSoC5/CharLCD_1.c **** *        Enables the auto cursor increment
  42:Generated_Source\PSoC5/CharLCD_1.c **** *        Resets the cursor to start position
  43:Generated_Source\PSoC5/CharLCD_1.c **** *  Also, it loads a custom character set to the LCD if it was defined in the customizer.
  44:Generated_Source\PSoC5/CharLCD_1.c **** *
  45:Generated_Source\PSoC5/CharLCD_1.c **** * Parameters:
  46:Generated_Source\PSoC5/CharLCD_1.c **** *  None.
  47:Generated_Source\PSoC5/CharLCD_1.c **** *
  48:Generated_Source\PSoC5/CharLCD_1.c **** * Return:
  49:Generated_Source\PSoC5/CharLCD_1.c **** *  None.
  50:Generated_Source\PSoC5/CharLCD_1.c **** *
  51:Generated_Source\PSoC5/CharLCD_1.c **** * Reentrant:
  52:Generated_Source\PSoC5/CharLCD_1.c **** *  No.
  53:Generated_Source\PSoC5/CharLCD_1.c **** *
  54:Generated_Source\PSoC5/CharLCD_1.c **** *******************************************************************************/
  55:Generated_Source\PSoC5/CharLCD_1.c **** void CharLCD_1_Init(void) 
  56:Generated_Source\PSoC5/CharLCD_1.c **** {
  39              		.loc 1 56 0
  40              		.cfi_startproc
  41              		@ args = 0, pretend = 0, frame = 0
  42              		@ frame_needed = 1, uses_anonymous_args = 0
  43 0000 80B5     		push	{r7, lr}
  44              		.cfi_def_cfa_offset 8
  45              		.cfi_offset 7, -8
  46              		.cfi_offset 14, -4
  47 0002 00AF     		add	r7, sp, #0
  48              		.cfi_def_cfa_register 7
  57:Generated_Source\PSoC5/CharLCD_1.c ****     /* INIT CODE */
  58:Generated_Source\PSoC5/CharLCD_1.c ****     CyDelay(40u);                                                        /* Delay 40 ms */
  49              		.loc 1 58 0
  50 0004 2820     		movs	r0, #40
  51 0006 FFF7FEFF 		bl	CyDelay
  59:Generated_Source\PSoC5/CharLCD_1.c ****     CharLCD_1_WrCntrlNib(CharLCD_1_DISPLAY_8_BIT_INIT);    /* Selects 8-bit mode */
  52              		.loc 1 59 0
  53 000a 0320     		movs	r0, #3
  54 000c FFF7FEFF 		bl	CharLCD_1_WrCntrlNib
  60:Generated_Source\PSoC5/CharLCD_1.c ****     CyDelay(5u);                                                         /* Delay 5 ms */
ARM GAS  C:\Users\shkoli\AppData\Local\Temp\cc5ETAli.s 			page 3


  55              		.loc 1 60 0
  56 0010 0520     		movs	r0, #5
  57 0012 FFF7FEFF 		bl	CyDelay
  61:Generated_Source\PSoC5/CharLCD_1.c ****     CharLCD_1_WrCntrlNib(CharLCD_1_DISPLAY_8_BIT_INIT);    /* Selects 8-bit mode */
  58              		.loc 1 61 0
  59 0016 0320     		movs	r0, #3
  60 0018 FFF7FEFF 		bl	CharLCD_1_WrCntrlNib
  62:Generated_Source\PSoC5/CharLCD_1.c ****     CyDelay(15u);                                                        /* Delay 15 ms */
  61              		.loc 1 62 0
  62 001c 0F20     		movs	r0, #15
  63 001e FFF7FEFF 		bl	CyDelay
  63:Generated_Source\PSoC5/CharLCD_1.c ****     CharLCD_1_WrCntrlNib(CharLCD_1_DISPLAY_8_BIT_INIT);    /* Selects 8-bit mode */
  64              		.loc 1 63 0
  65 0022 0320     		movs	r0, #3
  66 0024 FFF7FEFF 		bl	CharLCD_1_WrCntrlNib
  64:Generated_Source\PSoC5/CharLCD_1.c ****     CyDelay(1u);                                                         /* Delay 1 ms */
  67              		.loc 1 64 0
  68 0028 0120     		movs	r0, #1
  69 002a FFF7FEFF 		bl	CyDelay
  65:Generated_Source\PSoC5/CharLCD_1.c ****     CharLCD_1_WrCntrlNib(CharLCD_1_DISPLAY_4_BIT_INIT);    /* Selects 4-bit mode */
  70              		.loc 1 65 0
  71 002e 0220     		movs	r0, #2
  72 0030 FFF7FEFF 		bl	CharLCD_1_WrCntrlNib
  66:Generated_Source\PSoC5/CharLCD_1.c ****     CyDelay(5u);                                                         /* Delay 5 ms */
  73              		.loc 1 66 0
  74 0034 0520     		movs	r0, #5
  75 0036 FFF7FEFF 		bl	CyDelay
  67:Generated_Source\PSoC5/CharLCD_1.c **** 
  68:Generated_Source\PSoC5/CharLCD_1.c ****     CharLCD_1_WriteControl(CharLCD_1_CURSOR_AUTO_INCR_ON);    /* Incr Cursor After Writes */
  76              		.loc 1 68 0
  77 003a 0620     		movs	r0, #6
  78 003c FFF7FEFF 		bl	CharLCD_1_WriteControl
  69:Generated_Source\PSoC5/CharLCD_1.c ****     CharLCD_1_WriteControl(CharLCD_1_DISPLAY_CURSOR_ON);      /* Turn Display, Cursor ON */
  79              		.loc 1 69 0
  80 0040 0E20     		movs	r0, #14
  81 0042 FFF7FEFF 		bl	CharLCD_1_WriteControl
  70:Generated_Source\PSoC5/CharLCD_1.c ****     CharLCD_1_WriteControl(CharLCD_1_DISPLAY_2_LINES_5x10);   /* 2 Lines by 5x10 Characters */
  82              		.loc 1 70 0
  83 0046 2C20     		movs	r0, #44
  84 0048 FFF7FEFF 		bl	CharLCD_1_WriteControl
  71:Generated_Source\PSoC5/CharLCD_1.c ****     CharLCD_1_WriteControl(CharLCD_1_DISPLAY_CURSOR_OFF);     /* Turn Display, Cursor OFF */
  85              		.loc 1 71 0
  86 004c 0820     		movs	r0, #8
  87 004e FFF7FEFF 		bl	CharLCD_1_WriteControl
  72:Generated_Source\PSoC5/CharLCD_1.c ****     CharLCD_1_WriteControl(CharLCD_1_CLEAR_DISPLAY);          /* Clear LCD Screen */
  88              		.loc 1 72 0
  89 0052 0120     		movs	r0, #1
  90 0054 FFF7FEFF 		bl	CharLCD_1_WriteControl
  73:Generated_Source\PSoC5/CharLCD_1.c ****     CharLCD_1_WriteControl(CharLCD_1_DISPLAY_ON_CURSOR_OFF);  /* Turn Display ON, Cursor OFF */
  91              		.loc 1 73 0
  92 0058 0C20     		movs	r0, #12
  93 005a FFF7FEFF 		bl	CharLCD_1_WriteControl
  74:Generated_Source\PSoC5/CharLCD_1.c ****     CharLCD_1_WriteControl(CharLCD_1_RESET_CURSOR_POSITION);  /* Set Cursor to 0,0 */
  94              		.loc 1 74 0
  95 005e 0320     		movs	r0, #3
  96 0060 FFF7FEFF 		bl	CharLCD_1_WriteControl
  75:Generated_Source\PSoC5/CharLCD_1.c ****     CyDelay(5u);
ARM GAS  C:\Users\shkoli\AppData\Local\Temp\cc5ETAli.s 			page 4


  97              		.loc 1 75 0
  98 0064 0520     		movs	r0, #5
  99 0066 FFF7FEFF 		bl	CyDelay
  76:Generated_Source\PSoC5/CharLCD_1.c **** 
  77:Generated_Source\PSoC5/CharLCD_1.c ****     #if(CharLCD_1_CUSTOM_CHAR_SET != CharLCD_1_NONE)
  78:Generated_Source\PSoC5/CharLCD_1.c ****         CharLCD_1_LoadCustomFonts(CharLCD_1_customFonts);
 100              		.loc 1 78 0
 101 006a 0248     		ldr	r0, .L2
 102 006c FFF7FEFF 		bl	CharLCD_1_LoadCustomFonts
  79:Generated_Source\PSoC5/CharLCD_1.c ****     #endif /* CharLCD_1_CUSTOM_CHAR_SET != CharLCD_1_NONE */
  80:Generated_Source\PSoC5/CharLCD_1.c **** }
 103              		.loc 1 80 0
 104 0070 00BF     		nop
 105 0072 80BD     		pop	{r7, pc}
 106              	.L3:
 107              		.align	2
 108              	.L2:
 109 0074 00000000 		.word	CharLCD_1_customFonts
 110              		.cfi_endproc
 111              	.LFE0:
 112              		.size	CharLCD_1_Init, .-CharLCD_1_Init
 113              		.section	.text.CharLCD_1_Enable,"ax",%progbits
 114              		.align	2
 115              		.global	CharLCD_1_Enable
 116              		.thumb
 117              		.thumb_func
 118              		.type	CharLCD_1_Enable, %function
 119              	CharLCD_1_Enable:
 120              	.LFB1:
  81:Generated_Source\PSoC5/CharLCD_1.c **** 
  82:Generated_Source\PSoC5/CharLCD_1.c **** 
  83:Generated_Source\PSoC5/CharLCD_1.c **** /*******************************************************************************
  84:Generated_Source\PSoC5/CharLCD_1.c **** * Function Name: CharLCD_1_Enable
  85:Generated_Source\PSoC5/CharLCD_1.c **** ********************************************************************************
  86:Generated_Source\PSoC5/CharLCD_1.c **** *
  87:Generated_Source\PSoC5/CharLCD_1.c **** * Summary:
  88:Generated_Source\PSoC5/CharLCD_1.c **** *  Turns on the display.
  89:Generated_Source\PSoC5/CharLCD_1.c **** *
  90:Generated_Source\PSoC5/CharLCD_1.c **** * Parameters:
  91:Generated_Source\PSoC5/CharLCD_1.c **** *  None.
  92:Generated_Source\PSoC5/CharLCD_1.c **** *
  93:Generated_Source\PSoC5/CharLCD_1.c **** * Return:
  94:Generated_Source\PSoC5/CharLCD_1.c **** *  None.
  95:Generated_Source\PSoC5/CharLCD_1.c **** *
  96:Generated_Source\PSoC5/CharLCD_1.c **** * Reentrant:
  97:Generated_Source\PSoC5/CharLCD_1.c **** *  No.
  98:Generated_Source\PSoC5/CharLCD_1.c **** *
  99:Generated_Source\PSoC5/CharLCD_1.c **** * Theory:
 100:Generated_Source\PSoC5/CharLCD_1.c **** *  This function has no effect when it is called the first time as
 101:Generated_Source\PSoC5/CharLCD_1.c **** *  CharLCD_1_Init() turns on the LCD.
 102:Generated_Source\PSoC5/CharLCD_1.c **** *
 103:Generated_Source\PSoC5/CharLCD_1.c **** *******************************************************************************/
 104:Generated_Source\PSoC5/CharLCD_1.c **** void CharLCD_1_Enable(void) 
 105:Generated_Source\PSoC5/CharLCD_1.c **** {
 121              		.loc 1 105 0
 122              		.cfi_startproc
 123              		@ args = 0, pretend = 0, frame = 0
ARM GAS  C:\Users\shkoli\AppData\Local\Temp\cc5ETAli.s 			page 5


 124              		@ frame_needed = 1, uses_anonymous_args = 0
 125 0000 80B5     		push	{r7, lr}
 126              		.cfi_def_cfa_offset 8
 127              		.cfi_offset 7, -8
 128              		.cfi_offset 14, -4
 129 0002 00AF     		add	r7, sp, #0
 130              		.cfi_def_cfa_register 7
 106:Generated_Source\PSoC5/CharLCD_1.c ****     CharLCD_1_DisplayOn();
 131              		.loc 1 106 0
 132 0004 0C20     		movs	r0, #12
 133 0006 FFF7FEFF 		bl	CharLCD_1_WriteControl
 107:Generated_Source\PSoC5/CharLCD_1.c ****     CharLCD_1_enableState = 1u;
 134              		.loc 1 107 0
 135 000a 024B     		ldr	r3, .L5
 136 000c 0122     		movs	r2, #1
 137 000e 1A70     		strb	r2, [r3]
 108:Generated_Source\PSoC5/CharLCD_1.c **** }
 138              		.loc 1 108 0
 139 0010 00BF     		nop
 140 0012 80BD     		pop	{r7, pc}
 141              	.L6:
 142              		.align	2
 143              	.L5:
 144 0014 00000000 		.word	CharLCD_1_enableState
 145              		.cfi_endproc
 146              	.LFE1:
 147              		.size	CharLCD_1_Enable, .-CharLCD_1_Enable
 148              		.section	.text.CharLCD_1_Start,"ax",%progbits
 149              		.align	2
 150              		.global	CharLCD_1_Start
 151              		.thumb
 152              		.thumb_func
 153              		.type	CharLCD_1_Start, %function
 154              	CharLCD_1_Start:
 155              	.LFB2:
 109:Generated_Source\PSoC5/CharLCD_1.c **** 
 110:Generated_Source\PSoC5/CharLCD_1.c **** 
 111:Generated_Source\PSoC5/CharLCD_1.c **** /*******************************************************************************
 112:Generated_Source\PSoC5/CharLCD_1.c **** * Function Name: CharLCD_1_Start
 113:Generated_Source\PSoC5/CharLCD_1.c **** ********************************************************************************
 114:Generated_Source\PSoC5/CharLCD_1.c **** *
 115:Generated_Source\PSoC5/CharLCD_1.c **** * Summary:
 116:Generated_Source\PSoC5/CharLCD_1.c **** *  Performs initialization required for the components normal work.
 117:Generated_Source\PSoC5/CharLCD_1.c **** *  This function initializes the LCD hardware module as follows:
 118:Generated_Source\PSoC5/CharLCD_1.c **** *        Enables 4-bit interface
 119:Generated_Source\PSoC5/CharLCD_1.c **** *        Clears the display
 120:Generated_Source\PSoC5/CharLCD_1.c **** *        Enables auto cursor increment
 121:Generated_Source\PSoC5/CharLCD_1.c **** *        Resets the cursor to start position
 122:Generated_Source\PSoC5/CharLCD_1.c **** *  Also, it loads a custom character set to the LCD if it was defined in the customizer.
 123:Generated_Source\PSoC5/CharLCD_1.c **** *  If it was not the first call in this project, then it just turns on the
 124:Generated_Source\PSoC5/CharLCD_1.c **** *  display
 125:Generated_Source\PSoC5/CharLCD_1.c **** *
 126:Generated_Source\PSoC5/CharLCD_1.c **** *
 127:Generated_Source\PSoC5/CharLCD_1.c **** * Parameters:
 128:Generated_Source\PSoC5/CharLCD_1.c **** *  CharLCD_1_initVar - global variable.
 129:Generated_Source\PSoC5/CharLCD_1.c **** *
 130:Generated_Source\PSoC5/CharLCD_1.c **** * Return:
ARM GAS  C:\Users\shkoli\AppData\Local\Temp\cc5ETAli.s 			page 6


 131:Generated_Source\PSoC5/CharLCD_1.c **** *  CharLCD_1_initVar - global variable.
 132:Generated_Source\PSoC5/CharLCD_1.c **** *
 133:Generated_Source\PSoC5/CharLCD_1.c **** * Reentrant:
 134:Generated_Source\PSoC5/CharLCD_1.c **** *  No.
 135:Generated_Source\PSoC5/CharLCD_1.c **** *
 136:Generated_Source\PSoC5/CharLCD_1.c **** *******************************************************************************/
 137:Generated_Source\PSoC5/CharLCD_1.c **** void CharLCD_1_Start(void) 
 138:Generated_Source\PSoC5/CharLCD_1.c **** {
 156              		.loc 1 138 0
 157              		.cfi_startproc
 158              		@ args = 0, pretend = 0, frame = 0
 159              		@ frame_needed = 1, uses_anonymous_args = 0
 160 0000 80B5     		push	{r7, lr}
 161              		.cfi_def_cfa_offset 8
 162              		.cfi_offset 7, -8
 163              		.cfi_offset 14, -4
 164 0002 00AF     		add	r7, sp, #0
 165              		.cfi_def_cfa_register 7
 139:Generated_Source\PSoC5/CharLCD_1.c ****     /* If not initialized, perform initialization */
 140:Generated_Source\PSoC5/CharLCD_1.c ****     if(CharLCD_1_initVar == 0u)
 166              		.loc 1 140 0
 167 0004 064B     		ldr	r3, .L9
 168 0006 1B78     		ldrb	r3, [r3]	@ zero_extendqisi2
 169 0008 002B     		cmp	r3, #0
 170 000a 04D1     		bne	.L8
 141:Generated_Source\PSoC5/CharLCD_1.c ****     {
 142:Generated_Source\PSoC5/CharLCD_1.c ****         CharLCD_1_Init();
 171              		.loc 1 142 0
 172 000c FFF7FEFF 		bl	CharLCD_1_Init
 143:Generated_Source\PSoC5/CharLCD_1.c ****         CharLCD_1_initVar = 1u;
 173              		.loc 1 143 0
 174 0010 034B     		ldr	r3, .L9
 175 0012 0122     		movs	r2, #1
 176 0014 1A70     		strb	r2, [r3]
 177              	.L8:
 144:Generated_Source\PSoC5/CharLCD_1.c ****     }
 145:Generated_Source\PSoC5/CharLCD_1.c **** 
 146:Generated_Source\PSoC5/CharLCD_1.c ****     /* Turn on the LCD */
 147:Generated_Source\PSoC5/CharLCD_1.c ****     CharLCD_1_Enable();
 178              		.loc 1 147 0
 179 0016 FFF7FEFF 		bl	CharLCD_1_Enable
 148:Generated_Source\PSoC5/CharLCD_1.c **** }
 180              		.loc 1 148 0
 181 001a 00BF     		nop
 182 001c 80BD     		pop	{r7, pc}
 183              	.L10:
 184 001e 00BF     		.align	2
 185              	.L9:
 186 0020 00000000 		.word	CharLCD_1_initVar
 187              		.cfi_endproc
 188              	.LFE2:
 189              		.size	CharLCD_1_Start, .-CharLCD_1_Start
 190              		.section	.text.CharLCD_1_Stop,"ax",%progbits
 191              		.align	2
 192              		.global	CharLCD_1_Stop
 193              		.thumb
 194              		.thumb_func
ARM GAS  C:\Users\shkoli\AppData\Local\Temp\cc5ETAli.s 			page 7


 195              		.type	CharLCD_1_Stop, %function
 196              	CharLCD_1_Stop:
 197              	.LFB3:
 149:Generated_Source\PSoC5/CharLCD_1.c **** 
 150:Generated_Source\PSoC5/CharLCD_1.c **** 
 151:Generated_Source\PSoC5/CharLCD_1.c **** /*******************************************************************************
 152:Generated_Source\PSoC5/CharLCD_1.c **** * Function Name: CharLCD_1_Stop
 153:Generated_Source\PSoC5/CharLCD_1.c **** ********************************************************************************
 154:Generated_Source\PSoC5/CharLCD_1.c **** *
 155:Generated_Source\PSoC5/CharLCD_1.c **** * Summary:
 156:Generated_Source\PSoC5/CharLCD_1.c **** *  Turns off the display of the LCD screen.
 157:Generated_Source\PSoC5/CharLCD_1.c **** *
 158:Generated_Source\PSoC5/CharLCD_1.c **** * Parameters:
 159:Generated_Source\PSoC5/CharLCD_1.c **** *  None.
 160:Generated_Source\PSoC5/CharLCD_1.c **** *
 161:Generated_Source\PSoC5/CharLCD_1.c **** * Return:
 162:Generated_Source\PSoC5/CharLCD_1.c **** *  None.
 163:Generated_Source\PSoC5/CharLCD_1.c **** *
 164:Generated_Source\PSoC5/CharLCD_1.c **** * Reentrant:
 165:Generated_Source\PSoC5/CharLCD_1.c **** *  No.
 166:Generated_Source\PSoC5/CharLCD_1.c **** *
 167:Generated_Source\PSoC5/CharLCD_1.c **** *******************************************************************************/
 168:Generated_Source\PSoC5/CharLCD_1.c **** void CharLCD_1_Stop(void) 
 169:Generated_Source\PSoC5/CharLCD_1.c **** {
 198              		.loc 1 169 0
 199              		.cfi_startproc
 200              		@ args = 0, pretend = 0, frame = 0
 201              		@ frame_needed = 1, uses_anonymous_args = 0
 202 0000 80B5     		push	{r7, lr}
 203              		.cfi_def_cfa_offset 8
 204              		.cfi_offset 7, -8
 205              		.cfi_offset 14, -4
 206 0002 00AF     		add	r7, sp, #0
 207              		.cfi_def_cfa_register 7
 170:Generated_Source\PSoC5/CharLCD_1.c ****     /* Calls LCD Off Macro */
 171:Generated_Source\PSoC5/CharLCD_1.c ****     CharLCD_1_DisplayOff();
 208              		.loc 1 171 0
 209 0004 0820     		movs	r0, #8
 210 0006 FFF7FEFF 		bl	CharLCD_1_WriteControl
 172:Generated_Source\PSoC5/CharLCD_1.c ****     CharLCD_1_enableState = 0u;
 211              		.loc 1 172 0
 212 000a 024B     		ldr	r3, .L12
 213 000c 0022     		movs	r2, #0
 214 000e 1A70     		strb	r2, [r3]
 173:Generated_Source\PSoC5/CharLCD_1.c **** }
 215              		.loc 1 173 0
 216 0010 00BF     		nop
 217 0012 80BD     		pop	{r7, pc}
 218              	.L13:
 219              		.align	2
 220              	.L12:
 221 0014 00000000 		.word	CharLCD_1_enableState
 222              		.cfi_endproc
 223              	.LFE3:
 224              		.size	CharLCD_1_Stop, .-CharLCD_1_Stop
 225              		.section	.text.CharLCD_1_Position,"ax",%progbits
 226              		.align	2
ARM GAS  C:\Users\shkoli\AppData\Local\Temp\cc5ETAli.s 			page 8


 227              		.global	CharLCD_1_Position
 228              		.thumb
 229              		.thumb_func
 230              		.type	CharLCD_1_Position, %function
 231              	CharLCD_1_Position:
 232              	.LFB4:
 174:Generated_Source\PSoC5/CharLCD_1.c **** 
 175:Generated_Source\PSoC5/CharLCD_1.c **** 
 176:Generated_Source\PSoC5/CharLCD_1.c **** /*******************************************************************************
 177:Generated_Source\PSoC5/CharLCD_1.c **** *  Function Name: CharLCD_1_Position
 178:Generated_Source\PSoC5/CharLCD_1.c **** ********************************************************************************
 179:Generated_Source\PSoC5/CharLCD_1.c **** *
 180:Generated_Source\PSoC5/CharLCD_1.c **** * Summary:
 181:Generated_Source\PSoC5/CharLCD_1.c **** *  Moves the active cursor location to a point specified by the input arguments
 182:Generated_Source\PSoC5/CharLCD_1.c **** *
 183:Generated_Source\PSoC5/CharLCD_1.c **** * Parameters:
 184:Generated_Source\PSoC5/CharLCD_1.c **** *  row:    Specific row of LCD module to be written
 185:Generated_Source\PSoC5/CharLCD_1.c **** *  column: Column of LCD module to be written
 186:Generated_Source\PSoC5/CharLCD_1.c **** *
 187:Generated_Source\PSoC5/CharLCD_1.c **** * Return:
 188:Generated_Source\PSoC5/CharLCD_1.c **** *  None.
 189:Generated_Source\PSoC5/CharLCD_1.c **** *
 190:Generated_Source\PSoC5/CharLCD_1.c **** * Note:
 191:Generated_Source\PSoC5/CharLCD_1.c **** *  This only applies for LCD displays that use the 2X40 address mode.
 192:Generated_Source\PSoC5/CharLCD_1.c **** *  In this case Row 2 starts with a 0x28 offset from Row 1.
 193:Generated_Source\PSoC5/CharLCD_1.c **** *  When there are more than 2 rows, each row must be fewer than 20 characters.
 194:Generated_Source\PSoC5/CharLCD_1.c **** *
 195:Generated_Source\PSoC5/CharLCD_1.c **** *******************************************************************************/
 196:Generated_Source\PSoC5/CharLCD_1.c **** void CharLCD_1_Position(uint8 row, uint8 column) 
 197:Generated_Source\PSoC5/CharLCD_1.c **** {
 233              		.loc 1 197 0
 234              		.cfi_startproc
 235              		@ args = 0, pretend = 0, frame = 8
 236              		@ frame_needed = 1, uses_anonymous_args = 0
 237 0000 80B5     		push	{r7, lr}
 238              		.cfi_def_cfa_offset 8
 239              		.cfi_offset 7, -8
 240              		.cfi_offset 14, -4
 241 0002 82B0     		sub	sp, sp, #8
 242              		.cfi_def_cfa_offset 16
 243 0004 00AF     		add	r7, sp, #0
 244              		.cfi_def_cfa_register 7
 245 0006 0346     		mov	r3, r0
 246 0008 0A46     		mov	r2, r1
 247 000a FB71     		strb	r3, [r7, #7]
 248 000c 1346     		mov	r3, r2
 249 000e BB71     		strb	r3, [r7, #6]
 198:Generated_Source\PSoC5/CharLCD_1.c ****     switch (row)
 250              		.loc 1 198 0
 251 0010 FB79     		ldrb	r3, [r7, #7]	@ zero_extendqisi2
 252 0012 032B     		cmp	r3, #3
 253 0014 26D8     		bhi	.L22
 254 0016 01A2     		adr	r2, .L17
 255 0018 52F823F0 		ldr	pc, [r2, r3, lsl #2]
 256              		.p2align 2
 257              	.L17:
 258 001c 2D000000 		.word	.L16+1
ARM GAS  C:\Users\shkoli\AppData\Local\Temp\cc5ETAli.s 			page 9


 259 0020 3B000000 		.word	.L18+1
 260 0024 49000000 		.word	.L19+1
 261 0028 57000000 		.word	.L20+1
 262              		.p2align 1
 263              	.L16:
 199:Generated_Source\PSoC5/CharLCD_1.c ****     {
 200:Generated_Source\PSoC5/CharLCD_1.c ****         case (uint8)0:
 201:Generated_Source\PSoC5/CharLCD_1.c ****             CharLCD_1_WriteControl(CharLCD_1_ROW_0_START + column);
 264              		.loc 1 201 0
 265 002c BB79     		ldrb	r3, [r7, #6]
 266 002e 803B     		subs	r3, r3, #128
 267 0030 DBB2     		uxtb	r3, r3
 268 0032 1846     		mov	r0, r3
 269 0034 FFF7FEFF 		bl	CharLCD_1_WriteControl
 202:Generated_Source\PSoC5/CharLCD_1.c ****             break;
 270              		.loc 1 202 0
 271 0038 15E0     		b	.L21
 272              	.L18:
 203:Generated_Source\PSoC5/CharLCD_1.c ****         case (uint8) 1:
 204:Generated_Source\PSoC5/CharLCD_1.c ****             CharLCD_1_WriteControl(CharLCD_1_ROW_1_START + column);
 273              		.loc 1 204 0
 274 003a BB79     		ldrb	r3, [r7, #6]
 275 003c 403B     		subs	r3, r3, #64
 276 003e DBB2     		uxtb	r3, r3
 277 0040 1846     		mov	r0, r3
 278 0042 FFF7FEFF 		bl	CharLCD_1_WriteControl
 205:Generated_Source\PSoC5/CharLCD_1.c ****             break;
 279              		.loc 1 205 0
 280 0046 0EE0     		b	.L21
 281              	.L19:
 206:Generated_Source\PSoC5/CharLCD_1.c ****         case (uint8) 2:
 207:Generated_Source\PSoC5/CharLCD_1.c ****             CharLCD_1_WriteControl(CharLCD_1_ROW_2_START + column);
 282              		.loc 1 207 0
 283 0048 BB79     		ldrb	r3, [r7, #6]
 284 004a 6C3B     		subs	r3, r3, #108
 285 004c DBB2     		uxtb	r3, r3
 286 004e 1846     		mov	r0, r3
 287 0050 FFF7FEFF 		bl	CharLCD_1_WriteControl
 208:Generated_Source\PSoC5/CharLCD_1.c ****             break;
 288              		.loc 1 208 0
 289 0054 07E0     		b	.L21
 290              	.L20:
 209:Generated_Source\PSoC5/CharLCD_1.c ****         case (uint8) 3:
 210:Generated_Source\PSoC5/CharLCD_1.c ****             CharLCD_1_WriteControl(CharLCD_1_ROW_3_START + column);
 291              		.loc 1 210 0
 292 0056 BB79     		ldrb	r3, [r7, #6]
 293 0058 2C3B     		subs	r3, r3, #44
 294 005a DBB2     		uxtb	r3, r3
 295 005c 1846     		mov	r0, r3
 296 005e FFF7FEFF 		bl	CharLCD_1_WriteControl
 211:Generated_Source\PSoC5/CharLCD_1.c ****             break;
 297              		.loc 1 211 0
 298 0062 00E0     		b	.L21
 299              	.L22:
 212:Generated_Source\PSoC5/CharLCD_1.c ****         default:
 213:Generated_Source\PSoC5/CharLCD_1.c ****             /* if default case is hit, invalid row argument was passed.*/
 214:Generated_Source\PSoC5/CharLCD_1.c ****             break;
ARM GAS  C:\Users\shkoli\AppData\Local\Temp\cc5ETAli.s 			page 10


 300              		.loc 1 214 0
 301 0064 00BF     		nop
 302              	.L21:
 215:Generated_Source\PSoC5/CharLCD_1.c ****     }
 216:Generated_Source\PSoC5/CharLCD_1.c **** }
 303              		.loc 1 216 0
 304 0066 00BF     		nop
 305 0068 0837     		adds	r7, r7, #8
 306              		.cfi_def_cfa_offset 8
 307 006a BD46     		mov	sp, r7
 308              		.cfi_def_cfa_register 13
 309              		@ sp needed
 310 006c 80BD     		pop	{r7, pc}
 311              		.cfi_endproc
 312              	.LFE4:
 313              		.size	CharLCD_1_Position, .-CharLCD_1_Position
 314 006e 00BF     		.section	.text.CharLCD_1_PrintString,"ax",%progbits
 315              		.align	2
 316              		.global	CharLCD_1_PrintString
 317              		.thumb
 318              		.thumb_func
 319              		.type	CharLCD_1_PrintString, %function
 320              	CharLCD_1_PrintString:
 321              	.LFB5:
 217:Generated_Source\PSoC5/CharLCD_1.c **** 
 218:Generated_Source\PSoC5/CharLCD_1.c **** 
 219:Generated_Source\PSoC5/CharLCD_1.c **** /*******************************************************************************
 220:Generated_Source\PSoC5/CharLCD_1.c **** * Function Name: CharLCD_1_PrintString
 221:Generated_Source\PSoC5/CharLCD_1.c **** ********************************************************************************
 222:Generated_Source\PSoC5/CharLCD_1.c **** *
 223:Generated_Source\PSoC5/CharLCD_1.c **** * Summary:
 224:Generated_Source\PSoC5/CharLCD_1.c **** *  Writes a zero terminated string to the LCD.
 225:Generated_Source\PSoC5/CharLCD_1.c **** *
 226:Generated_Source\PSoC5/CharLCD_1.c **** * Parameters:
 227:Generated_Source\PSoC5/CharLCD_1.c **** *  string: Pointer to head of char8 array to be written to the LCD module
 228:Generated_Source\PSoC5/CharLCD_1.c **** *
 229:Generated_Source\PSoC5/CharLCD_1.c **** * Return:
 230:Generated_Source\PSoC5/CharLCD_1.c **** *  None.
 231:Generated_Source\PSoC5/CharLCD_1.c **** *
 232:Generated_Source\PSoC5/CharLCD_1.c **** *******************************************************************************/
 233:Generated_Source\PSoC5/CharLCD_1.c **** void CharLCD_1_PrintString(char8 const string[]) 
 234:Generated_Source\PSoC5/CharLCD_1.c **** {
 322              		.loc 1 234 0
 323              		.cfi_startproc
 324              		@ args = 0, pretend = 0, frame = 16
 325              		@ frame_needed = 1, uses_anonymous_args = 0
 326 0000 80B5     		push	{r7, lr}
 327              		.cfi_def_cfa_offset 8
 328              		.cfi_offset 7, -8
 329              		.cfi_offset 14, -4
 330 0002 84B0     		sub	sp, sp, #16
 331              		.cfi_def_cfa_offset 24
 332 0004 00AF     		add	r7, sp, #0
 333              		.cfi_def_cfa_register 7
 334 0006 7860     		str	r0, [r7, #4]
 235:Generated_Source\PSoC5/CharLCD_1.c ****     uint8 indexU8 = 1u;
 335              		.loc 1 235 0
ARM GAS  C:\Users\shkoli\AppData\Local\Temp\cc5ETAli.s 			page 11


 336 0008 0123     		movs	r3, #1
 337 000a FB73     		strb	r3, [r7, #15]
 236:Generated_Source\PSoC5/CharLCD_1.c ****     char8 current = *string;
 338              		.loc 1 236 0
 339 000c 7B68     		ldr	r3, [r7, #4]
 340 000e 1B78     		ldrb	r3, [r3]
 341 0010 BB73     		strb	r3, [r7, #14]
 237:Generated_Source\PSoC5/CharLCD_1.c **** 
 238:Generated_Source\PSoC5/CharLCD_1.c ****     /* Until null is reached, print next character */
 239:Generated_Source\PSoC5/CharLCD_1.c ****     while((char8) '\0' != current)
 342              		.loc 1 239 0
 343 0012 0BE0     		b	.L24
 344              	.L25:
 240:Generated_Source\PSoC5/CharLCD_1.c ****     {
 241:Generated_Source\PSoC5/CharLCD_1.c ****         CharLCD_1_WriteData((uint8)current);
 345              		.loc 1 241 0
 346 0014 BB7B     		ldrb	r3, [r7, #14]	@ zero_extendqisi2
 347 0016 1846     		mov	r0, r3
 348 0018 FFF7FEFF 		bl	CharLCD_1_WriteData
 242:Generated_Source\PSoC5/CharLCD_1.c ****         current = string[indexU8];
 349              		.loc 1 242 0
 350 001c FB7B     		ldrb	r3, [r7, #15]	@ zero_extendqisi2
 351 001e 7A68     		ldr	r2, [r7, #4]
 352 0020 1344     		add	r3, r3, r2
 353 0022 1B78     		ldrb	r3, [r3]
 354 0024 BB73     		strb	r3, [r7, #14]
 243:Generated_Source\PSoC5/CharLCD_1.c ****         indexU8++;
 355              		.loc 1 243 0
 356 0026 FB7B     		ldrb	r3, [r7, #15]	@ zero_extendqisi2
 357 0028 0133     		adds	r3, r3, #1
 358 002a FB73     		strb	r3, [r7, #15]
 359              	.L24:
 239:Generated_Source\PSoC5/CharLCD_1.c ****     {
 360              		.loc 1 239 0
 361 002c BB7B     		ldrb	r3, [r7, #14]	@ zero_extendqisi2
 362 002e 002B     		cmp	r3, #0
 363 0030 F0D1     		bne	.L25
 244:Generated_Source\PSoC5/CharLCD_1.c ****     }
 245:Generated_Source\PSoC5/CharLCD_1.c **** }
 364              		.loc 1 245 0
 365 0032 00BF     		nop
 366 0034 1037     		adds	r7, r7, #16
 367              		.cfi_def_cfa_offset 8
 368 0036 BD46     		mov	sp, r7
 369              		.cfi_def_cfa_register 13
 370              		@ sp needed
 371 0038 80BD     		pop	{r7, pc}
 372              		.cfi_endproc
 373              	.LFE5:
 374              		.size	CharLCD_1_PrintString, .-CharLCD_1_PrintString
 375 003a 00BF     		.section	.text.CharLCD_1_PutChar,"ax",%progbits
 376              		.align	2
 377              		.global	CharLCD_1_PutChar
 378              		.thumb
 379              		.thumb_func
 380              		.type	CharLCD_1_PutChar, %function
 381              	CharLCD_1_PutChar:
ARM GAS  C:\Users\shkoli\AppData\Local\Temp\cc5ETAli.s 			page 12


 382              	.LFB6:
 246:Generated_Source\PSoC5/CharLCD_1.c **** 
 247:Generated_Source\PSoC5/CharLCD_1.c **** 
 248:Generated_Source\PSoC5/CharLCD_1.c **** /*******************************************************************************
 249:Generated_Source\PSoC5/CharLCD_1.c **** *  Function Name: CharLCD_1_PutChar
 250:Generated_Source\PSoC5/CharLCD_1.c **** ********************************************************************************
 251:Generated_Source\PSoC5/CharLCD_1.c **** *
 252:Generated_Source\PSoC5/CharLCD_1.c **** * Summary:
 253:Generated_Source\PSoC5/CharLCD_1.c **** *  Writes a single character to the current cursor position of the LCD module.
 254:Generated_Source\PSoC5/CharLCD_1.c **** *  Custom character names (_CUSTOM_0 through
 255:Generated_Source\PSoC5/CharLCD_1.c **** *  _CUSTOM_7) are acceptable as inputs.
 256:Generated_Source\PSoC5/CharLCD_1.c **** *
 257:Generated_Source\PSoC5/CharLCD_1.c **** * Parameters:
 258:Generated_Source\PSoC5/CharLCD_1.c **** *  character: Character to be written to LCD
 259:Generated_Source\PSoC5/CharLCD_1.c **** *
 260:Generated_Source\PSoC5/CharLCD_1.c **** * Return:
 261:Generated_Source\PSoC5/CharLCD_1.c **** *  None.
 262:Generated_Source\PSoC5/CharLCD_1.c **** *
 263:Generated_Source\PSoC5/CharLCD_1.c **** *******************************************************************************/
 264:Generated_Source\PSoC5/CharLCD_1.c **** void CharLCD_1_PutChar(char8 character) 
 265:Generated_Source\PSoC5/CharLCD_1.c **** {
 383              		.loc 1 265 0
 384              		.cfi_startproc
 385              		@ args = 0, pretend = 0, frame = 8
 386              		@ frame_needed = 1, uses_anonymous_args = 0
 387 0000 80B5     		push	{r7, lr}
 388              		.cfi_def_cfa_offset 8
 389              		.cfi_offset 7, -8
 390              		.cfi_offset 14, -4
 391 0002 82B0     		sub	sp, sp, #8
 392              		.cfi_def_cfa_offset 16
 393 0004 00AF     		add	r7, sp, #0
 394              		.cfi_def_cfa_register 7
 395 0006 0346     		mov	r3, r0
 396 0008 FB71     		strb	r3, [r7, #7]
 266:Generated_Source\PSoC5/CharLCD_1.c ****     CharLCD_1_WriteData((uint8)character);
 397              		.loc 1 266 0
 398 000a FB79     		ldrb	r3, [r7, #7]	@ zero_extendqisi2
 399 000c 1846     		mov	r0, r3
 400 000e FFF7FEFF 		bl	CharLCD_1_WriteData
 267:Generated_Source\PSoC5/CharLCD_1.c **** }
 401              		.loc 1 267 0
 402 0012 00BF     		nop
 403 0014 0837     		adds	r7, r7, #8
 404              		.cfi_def_cfa_offset 8
 405 0016 BD46     		mov	sp, r7
 406              		.cfi_def_cfa_register 13
 407              		@ sp needed
 408 0018 80BD     		pop	{r7, pc}
 409              		.cfi_endproc
 410              	.LFE6:
 411              		.size	CharLCD_1_PutChar, .-CharLCD_1_PutChar
 412 001a 00BF     		.section	.text.CharLCD_1_WriteData,"ax",%progbits
 413              		.align	2
 414              		.global	CharLCD_1_WriteData
 415              		.thumb
 416              		.thumb_func
ARM GAS  C:\Users\shkoli\AppData\Local\Temp\cc5ETAli.s 			page 13


 417              		.type	CharLCD_1_WriteData, %function
 418              	CharLCD_1_WriteData:
 419              	.LFB7:
 268:Generated_Source\PSoC5/CharLCD_1.c **** 
 269:Generated_Source\PSoC5/CharLCD_1.c **** 
 270:Generated_Source\PSoC5/CharLCD_1.c **** /*******************************************************************************
 271:Generated_Source\PSoC5/CharLCD_1.c **** *  Function Name: CharLCD_1_WriteData
 272:Generated_Source\PSoC5/CharLCD_1.c **** ********************************************************************************
 273:Generated_Source\PSoC5/CharLCD_1.c **** *
 274:Generated_Source\PSoC5/CharLCD_1.c **** * Summary:
 275:Generated_Source\PSoC5/CharLCD_1.c **** *  Writes a data byte to the LCD module's Data Display RAM.
 276:Generated_Source\PSoC5/CharLCD_1.c **** *
 277:Generated_Source\PSoC5/CharLCD_1.c **** * Parameters:
 278:Generated_Source\PSoC5/CharLCD_1.c **** *  dByte: Byte to be written to the LCD module
 279:Generated_Source\PSoC5/CharLCD_1.c **** *
 280:Generated_Source\PSoC5/CharLCD_1.c **** * Return:
 281:Generated_Source\PSoC5/CharLCD_1.c **** *  None.
 282:Generated_Source\PSoC5/CharLCD_1.c **** *
 283:Generated_Source\PSoC5/CharLCD_1.c **** *******************************************************************************/
 284:Generated_Source\PSoC5/CharLCD_1.c **** void CharLCD_1_WriteData(uint8 dByte) 
 285:Generated_Source\PSoC5/CharLCD_1.c **** {
 420              		.loc 1 285 0
 421              		.cfi_startproc
 422              		@ args = 0, pretend = 0, frame = 16
 423              		@ frame_needed = 1, uses_anonymous_args = 0
 424 0000 80B5     		push	{r7, lr}
 425              		.cfi_def_cfa_offset 8
 426              		.cfi_offset 7, -8
 427              		.cfi_offset 14, -4
 428 0002 84B0     		sub	sp, sp, #16
 429              		.cfi_def_cfa_offset 24
 430 0004 00AF     		add	r7, sp, #0
 431              		.cfi_def_cfa_register 7
 432 0006 0346     		mov	r3, r0
 433 0008 FB71     		strb	r3, [r7, #7]
 286:Generated_Source\PSoC5/CharLCD_1.c ****     uint8 nibble;
 287:Generated_Source\PSoC5/CharLCD_1.c **** 
 288:Generated_Source\PSoC5/CharLCD_1.c ****     CharLCD_1_IsReady();
 434              		.loc 1 288 0
 435 000a FFF7FEFF 		bl	CharLCD_1_IsReady
 289:Generated_Source\PSoC5/CharLCD_1.c ****     nibble = dByte >> CharLCD_1_NIBBLE_SHIFT;
 436              		.loc 1 289 0
 437 000e FB79     		ldrb	r3, [r7, #7]	@ zero_extendqisi2
 438 0010 1B09     		lsrs	r3, r3, #4
 439 0012 FB73     		strb	r3, [r7, #15]
 290:Generated_Source\PSoC5/CharLCD_1.c **** 
 291:Generated_Source\PSoC5/CharLCD_1.c ****     /* Write high nibble */
 292:Generated_Source\PSoC5/CharLCD_1.c ****     CharLCD_1_WrDatNib(nibble);
 440              		.loc 1 292 0
 441 0014 FB7B     		ldrb	r3, [r7, #15]	@ zero_extendqisi2
 442 0016 1846     		mov	r0, r3
 443 0018 FFF7FEFF 		bl	CharLCD_1_WrDatNib
 293:Generated_Source\PSoC5/CharLCD_1.c **** 
 294:Generated_Source\PSoC5/CharLCD_1.c ****     nibble = dByte & CharLCD_1_NIBBLE_MASK;
 444              		.loc 1 294 0
 445 001c FB79     		ldrb	r3, [r7, #7]
 446 001e 03F00F03 		and	r3, r3, #15
ARM GAS  C:\Users\shkoli\AppData\Local\Temp\cc5ETAli.s 			page 14


 447 0022 FB73     		strb	r3, [r7, #15]
 295:Generated_Source\PSoC5/CharLCD_1.c ****     /* Write low nibble */
 296:Generated_Source\PSoC5/CharLCD_1.c ****     CharLCD_1_WrDatNib(nibble);
 448              		.loc 1 296 0
 449 0024 FB7B     		ldrb	r3, [r7, #15]	@ zero_extendqisi2
 450 0026 1846     		mov	r0, r3
 451 0028 FFF7FEFF 		bl	CharLCD_1_WrDatNib
 297:Generated_Source\PSoC5/CharLCD_1.c **** }
 452              		.loc 1 297 0
 453 002c 00BF     		nop
 454 002e 1037     		adds	r7, r7, #16
 455              		.cfi_def_cfa_offset 8
 456 0030 BD46     		mov	sp, r7
 457              		.cfi_def_cfa_register 13
 458              		@ sp needed
 459 0032 80BD     		pop	{r7, pc}
 460              		.cfi_endproc
 461              	.LFE7:
 462              		.size	CharLCD_1_WriteData, .-CharLCD_1_WriteData
 463              		.section	.text.CharLCD_1_WriteControl,"ax",%progbits
 464              		.align	2
 465              		.global	CharLCD_1_WriteControl
 466              		.thumb
 467              		.thumb_func
 468              		.type	CharLCD_1_WriteControl, %function
 469              	CharLCD_1_WriteControl:
 470              	.LFB8:
 298:Generated_Source\PSoC5/CharLCD_1.c **** 
 299:Generated_Source\PSoC5/CharLCD_1.c **** 
 300:Generated_Source\PSoC5/CharLCD_1.c **** /*******************************************************************************
 301:Generated_Source\PSoC5/CharLCD_1.c **** *  Function Name: CharLCD_1_WriteControl
 302:Generated_Source\PSoC5/CharLCD_1.c **** ********************************************************************************
 303:Generated_Source\PSoC5/CharLCD_1.c **** *
 304:Generated_Source\PSoC5/CharLCD_1.c **** * Summary:
 305:Generated_Source\PSoC5/CharLCD_1.c **** *  Writes a command byte to the LCD module.
 306:Generated_Source\PSoC5/CharLCD_1.c **** *
 307:Generated_Source\PSoC5/CharLCD_1.c **** * Parameters:
 308:Generated_Source\PSoC5/CharLCD_1.c **** *  cByte:  The byte to be written to theLCD module
 309:Generated_Source\PSoC5/CharLCD_1.c **** * 
 310:Generated_Source\PSoC5/CharLCD_1.c **** * Return:
 311:Generated_Source\PSoC5/CharLCD_1.c **** *  None.
 312:Generated_Source\PSoC5/CharLCD_1.c **** *
 313:Generated_Source\PSoC5/CharLCD_1.c **** *******************************************************************************/
 314:Generated_Source\PSoC5/CharLCD_1.c **** void CharLCD_1_WriteControl(uint8 cByte) 
 315:Generated_Source\PSoC5/CharLCD_1.c **** {
 471              		.loc 1 315 0
 472              		.cfi_startproc
 473              		@ args = 0, pretend = 0, frame = 16
 474              		@ frame_needed = 1, uses_anonymous_args = 0
 475 0000 80B5     		push	{r7, lr}
 476              		.cfi_def_cfa_offset 8
 477              		.cfi_offset 7, -8
 478              		.cfi_offset 14, -4
 479 0002 84B0     		sub	sp, sp, #16
 480              		.cfi_def_cfa_offset 24
 481 0004 00AF     		add	r7, sp, #0
 482              		.cfi_def_cfa_register 7
ARM GAS  C:\Users\shkoli\AppData\Local\Temp\cc5ETAli.s 			page 15


 483 0006 0346     		mov	r3, r0
 484 0008 FB71     		strb	r3, [r7, #7]
 316:Generated_Source\PSoC5/CharLCD_1.c ****     uint8 nibble;
 317:Generated_Source\PSoC5/CharLCD_1.c **** 
 318:Generated_Source\PSoC5/CharLCD_1.c ****     CharLCD_1_IsReady();
 485              		.loc 1 318 0
 486 000a FFF7FEFF 		bl	CharLCD_1_IsReady
 319:Generated_Source\PSoC5/CharLCD_1.c **** 
 320:Generated_Source\PSoC5/CharLCD_1.c ****     nibble = cByte >> CharLCD_1_NIBBLE_SHIFT;
 487              		.loc 1 320 0
 488 000e FB79     		ldrb	r3, [r7, #7]	@ zero_extendqisi2
 489 0010 1B09     		lsrs	r3, r3, #4
 490 0012 FB73     		strb	r3, [r7, #15]
 321:Generated_Source\PSoC5/CharLCD_1.c ****     
 322:Generated_Source\PSoC5/CharLCD_1.c ****     /* WrCntrlNib(High Nibble) */
 323:Generated_Source\PSoC5/CharLCD_1.c ****     CharLCD_1_WrCntrlNib(nibble);
 491              		.loc 1 323 0
 492 0014 FB7B     		ldrb	r3, [r7, #15]	@ zero_extendqisi2
 493 0016 1846     		mov	r0, r3
 494 0018 FFF7FEFF 		bl	CharLCD_1_WrCntrlNib
 324:Generated_Source\PSoC5/CharLCD_1.c ****     nibble = cByte & CharLCD_1_NIBBLE_MASK;
 495              		.loc 1 324 0
 496 001c FB79     		ldrb	r3, [r7, #7]
 497 001e 03F00F03 		and	r3, r3, #15
 498 0022 FB73     		strb	r3, [r7, #15]
 325:Generated_Source\PSoC5/CharLCD_1.c **** 
 326:Generated_Source\PSoC5/CharLCD_1.c ****     /* WrCntrlNib(Low Nibble) */
 327:Generated_Source\PSoC5/CharLCD_1.c ****     CharLCD_1_WrCntrlNib(nibble);
 499              		.loc 1 327 0
 500 0024 FB7B     		ldrb	r3, [r7, #15]	@ zero_extendqisi2
 501 0026 1846     		mov	r0, r3
 502 0028 FFF7FEFF 		bl	CharLCD_1_WrCntrlNib
 328:Generated_Source\PSoC5/CharLCD_1.c **** }
 503              		.loc 1 328 0
 504 002c 00BF     		nop
 505 002e 1037     		adds	r7, r7, #16
 506              		.cfi_def_cfa_offset 8
 507 0030 BD46     		mov	sp, r7
 508              		.cfi_def_cfa_register 13
 509              		@ sp needed
 510 0032 80BD     		pop	{r7, pc}
 511              		.cfi_endproc
 512              	.LFE8:
 513              		.size	CharLCD_1_WriteControl, .-CharLCD_1_WriteControl
 514              		.section	.text.CharLCD_1_IsReady,"ax",%progbits
 515              		.align	2
 516              		.global	CharLCD_1_IsReady
 517              		.thumb
 518              		.thumb_func
 519              		.type	CharLCD_1_IsReady, %function
 520              	CharLCD_1_IsReady:
 521              	.LFB9:
 329:Generated_Source\PSoC5/CharLCD_1.c **** 
 330:Generated_Source\PSoC5/CharLCD_1.c **** 
 331:Generated_Source\PSoC5/CharLCD_1.c **** /*******************************************************************************
 332:Generated_Source\PSoC5/CharLCD_1.c **** * Function Name: CharLCD_1_IsReady
 333:Generated_Source\PSoC5/CharLCD_1.c **** ********************************************************************************
ARM GAS  C:\Users\shkoli\AppData\Local\Temp\cc5ETAli.s 			page 16


 334:Generated_Source\PSoC5/CharLCD_1.c **** *
 335:Generated_Source\PSoC5/CharLCD_1.c **** * Summary:
 336:Generated_Source\PSoC5/CharLCD_1.c **** *  Polls the LCD until the ready bit is set or a timeout occurs.
 337:Generated_Source\PSoC5/CharLCD_1.c **** *
 338:Generated_Source\PSoC5/CharLCD_1.c **** * Parameters:
 339:Generated_Source\PSoC5/CharLCD_1.c **** *  None.
 340:Generated_Source\PSoC5/CharLCD_1.c **** *
 341:Generated_Source\PSoC5/CharLCD_1.c **** * Return:
 342:Generated_Source\PSoC5/CharLCD_1.c **** *  None.
 343:Generated_Source\PSoC5/CharLCD_1.c **** *
 344:Generated_Source\PSoC5/CharLCD_1.c **** * Note:
 345:Generated_Source\PSoC5/CharLCD_1.c **** *  Changes the pins to High-Z.
 346:Generated_Source\PSoC5/CharLCD_1.c **** *
 347:Generated_Source\PSoC5/CharLCD_1.c **** *******************************************************************************/
 348:Generated_Source\PSoC5/CharLCD_1.c **** void CharLCD_1_IsReady(void) 
 349:Generated_Source\PSoC5/CharLCD_1.c **** {
 522              		.loc 1 349 0
 523              		.cfi_startproc
 524              		@ args = 0, pretend = 0, frame = 8
 525              		@ frame_needed = 1, uses_anonymous_args = 0
 526 0000 80B5     		push	{r7, lr}
 527              		.cfi_def_cfa_offset 8
 528              		.cfi_offset 7, -8
 529              		.cfi_offset 14, -4
 530 0002 82B0     		sub	sp, sp, #8
 531              		.cfi_def_cfa_offset 16
 532 0004 00AF     		add	r7, sp, #0
 533              		.cfi_def_cfa_register 7
 350:Generated_Source\PSoC5/CharLCD_1.c ****     uint8 value;
 351:Generated_Source\PSoC5/CharLCD_1.c ****     uint32 timeout;
 352:Generated_Source\PSoC5/CharLCD_1.c ****     timeout = CharLCD_1_READY_DELAY;
 534              		.loc 1 352 0
 535 0006 4FF4CA73 		mov	r3, #404
 536 000a 7B60     		str	r3, [r7, #4]
 353:Generated_Source\PSoC5/CharLCD_1.c **** 
 354:Generated_Source\PSoC5/CharLCD_1.c ****     /* Clear LCD port*/
 355:Generated_Source\PSoC5/CharLCD_1.c ****     CharLCD_1_PORT_DR_REG &= ((uint8)(~CharLCD_1_PORT_MASK));
 537              		.loc 1 355 0
 538 000c 554A     		ldr	r2, .L33
 539 000e 554B     		ldr	r3, .L33
 540 0010 1B78     		ldrb	r3, [r3]
 541 0012 DBB2     		uxtb	r3, r3
 542 0014 23F07F03 		bic	r3, r3, #127
 543 0018 DBB2     		uxtb	r3, r3
 544 001a 1370     		strb	r3, [r2]
 356:Generated_Source\PSoC5/CharLCD_1.c **** 
 357:Generated_Source\PSoC5/CharLCD_1.c ****     /* PSoC4 has a little different from PSoC3/5 port/pin organization for setting Drive Modes.
 358:Generated_Source\PSoC5/CharLCD_1.c ****   
 359:Generated_Source\PSoC5/CharLCD_1.c ****     */
 360:Generated_Source\PSoC5/CharLCD_1.c ****     #if (CY_PSOC4)
 361:Generated_Source\PSoC5/CharLCD_1.c ****         
 362:Generated_Source\PSoC5/CharLCD_1.c ****         /* Mask off data pins to clear old values out */
 363:Generated_Source\PSoC5/CharLCD_1.c ****         value = CharLCD_1_PORT_PC_REG & ((uint32) (~ CharLCD_1_DM_DATA_MASK));
 364:Generated_Source\PSoC5/CharLCD_1.c ****         /* Load in high Z values for data pins, others unchanged */
 365:Generated_Source\PSoC5/CharLCD_1.c ****         CharLCD_1_PORT_PC_REG = value | CharLCD_1_HIGH_Z_DATA_DM;
 366:Generated_Source\PSoC5/CharLCD_1.c **** 
 367:Generated_Source\PSoC5/CharLCD_1.c ****     #else
ARM GAS  C:\Users\shkoli\AppData\Local\Temp\cc5ETAli.s 			page 17


 368:Generated_Source\PSoC5/CharLCD_1.c ****     
 369:Generated_Source\PSoC5/CharLCD_1.c ****         /* Change Port to High-Z Status on data pins */
 370:Generated_Source\PSoC5/CharLCD_1.c **** 
 371:Generated_Source\PSoC5/CharLCD_1.c ****         /* Mask off data pins to clear old values out */
 372:Generated_Source\PSoC5/CharLCD_1.c ****         value = CharLCD_1_PORT_DM0_REG & ((uint8)(~CharLCD_1_DATA_MASK));
 545              		.loc 1 372 0
 546 001c 524B     		ldr	r3, .L33+4
 547 001e 1B78     		ldrb	r3, [r3]
 548 0020 DBB2     		uxtb	r3, r3
 549 0022 23F00F03 		bic	r3, r3, #15
 550 0026 FB70     		strb	r3, [r7, #3]
 373:Generated_Source\PSoC5/CharLCD_1.c ****         /* Load in high Z values for data pins, others unchanged */
 374:Generated_Source\PSoC5/CharLCD_1.c ****         CharLCD_1_PORT_DM0_REG = value | (CharLCD_1_HIGH_Z_DM0 & CharLCD_1_DATA_MASK);
 551              		.loc 1 374 0
 552 0028 4F4A     		ldr	r2, .L33+4
 553 002a FB78     		ldrb	r3, [r7, #3]
 554 002c 43F00F03 		orr	r3, r3, #15
 555 0030 DBB2     		uxtb	r3, r3
 556 0032 1370     		strb	r3, [r2]
 375:Generated_Source\PSoC5/CharLCD_1.c **** 
 376:Generated_Source\PSoC5/CharLCD_1.c ****         /* Mask off data pins to clear old values out */
 377:Generated_Source\PSoC5/CharLCD_1.c ****         value = CharLCD_1_PORT_DM1_REG & ((uint8)(~CharLCD_1_DATA_MASK));
 557              		.loc 1 377 0
 558 0034 4D4B     		ldr	r3, .L33+8
 559 0036 1B78     		ldrb	r3, [r3]
 560 0038 DBB2     		uxtb	r3, r3
 561 003a 23F00F03 		bic	r3, r3, #15
 562 003e FB70     		strb	r3, [r7, #3]
 378:Generated_Source\PSoC5/CharLCD_1.c ****         /* Load in high Z values for data pins, others unchanged */
 379:Generated_Source\PSoC5/CharLCD_1.c ****         CharLCD_1_PORT_DM1_REG = value;
 563              		.loc 1 379 0
 564 0040 4A4A     		ldr	r2, .L33+8
 565 0042 FB78     		ldrb	r3, [r7, #3]
 566 0044 1370     		strb	r3, [r2]
 380:Generated_Source\PSoC5/CharLCD_1.c **** 
 381:Generated_Source\PSoC5/CharLCD_1.c ****         /* Mask off data pins to clear old values out */
 382:Generated_Source\PSoC5/CharLCD_1.c ****         value = CharLCD_1_PORT_DM2_REG & ((uint8)(~CharLCD_1_DATA_MASK));
 567              		.loc 1 382 0
 568 0046 4A4B     		ldr	r3, .L33+12
 569 0048 1B78     		ldrb	r3, [r3]
 570 004a DBB2     		uxtb	r3, r3
 571 004c 23F00F03 		bic	r3, r3, #15
 572 0050 FB70     		strb	r3, [r7, #3]
 383:Generated_Source\PSoC5/CharLCD_1.c ****         /* Load in high Z values for data pins, others unchanged */
 384:Generated_Source\PSoC5/CharLCD_1.c ****         CharLCD_1_PORT_DM2_REG = value;
 573              		.loc 1 384 0
 574 0052 474A     		ldr	r2, .L33+12
 575 0054 FB78     		ldrb	r3, [r7, #3]
 576 0056 1370     		strb	r3, [r2]
 385:Generated_Source\PSoC5/CharLCD_1.c ****     
 386:Generated_Source\PSoC5/CharLCD_1.c ****     #endif /* CY_PSOC4 */
 387:Generated_Source\PSoC5/CharLCD_1.c ****     
 388:Generated_Source\PSoC5/CharLCD_1.c ****     /* Make sure RS is low */
 389:Generated_Source\PSoC5/CharLCD_1.c ****     CharLCD_1_PORT_DR_REG &= ((uint8)(~CharLCD_1_RS));
 577              		.loc 1 389 0
 578 0058 424A     		ldr	r2, .L33
 579 005a 424B     		ldr	r3, .L33
ARM GAS  C:\Users\shkoli\AppData\Local\Temp\cc5ETAli.s 			page 18


 580 005c 1B78     		ldrb	r3, [r3]
 581 005e DBB2     		uxtb	r3, r3
 582 0060 23F02003 		bic	r3, r3, #32
 583 0064 DBB2     		uxtb	r3, r3
 584 0066 1370     		strb	r3, [r2]
 390:Generated_Source\PSoC5/CharLCD_1.c **** 
 391:Generated_Source\PSoC5/CharLCD_1.c ****     /* Set R/W high to read */
 392:Generated_Source\PSoC5/CharLCD_1.c ****     CharLCD_1_PORT_DR_REG |= CharLCD_1_RW;
 585              		.loc 1 392 0
 586 0068 3E4A     		ldr	r2, .L33
 587 006a 3E4B     		ldr	r3, .L33
 588 006c 1B78     		ldrb	r3, [r3]
 589 006e DBB2     		uxtb	r3, r3
 590 0070 43F04003 		orr	r3, r3, #64
 591 0074 DBB2     		uxtb	r3, r3
 592 0076 1370     		strb	r3, [r2]
 593              	.L32:
 393:Generated_Source\PSoC5/CharLCD_1.c **** 
 394:Generated_Source\PSoC5/CharLCD_1.c ****     do
 395:Generated_Source\PSoC5/CharLCD_1.c ****     {
 396:Generated_Source\PSoC5/CharLCD_1.c ****         /* 40 ns delay required before rising Enable and 500ns between neighbour Enables */
 397:Generated_Source\PSoC5/CharLCD_1.c ****         CyDelayUs(0u);
 594              		.loc 1 397 0
 595 0078 0020     		movs	r0, #0
 596 007a FFF7FEFF 		bl	CyDelayUs
 398:Generated_Source\PSoC5/CharLCD_1.c **** 
 399:Generated_Source\PSoC5/CharLCD_1.c ****         /* Set E high */
 400:Generated_Source\PSoC5/CharLCD_1.c ****         CharLCD_1_PORT_DR_REG |= CharLCD_1_E;
 597              		.loc 1 400 0
 598 007e 394A     		ldr	r2, .L33
 599 0080 384B     		ldr	r3, .L33
 600 0082 1B78     		ldrb	r3, [r3]
 601 0084 DBB2     		uxtb	r3, r3
 602 0086 43F01003 		orr	r3, r3, #16
 603 008a DBB2     		uxtb	r3, r3
 604 008c 1370     		strb	r3, [r2]
 401:Generated_Source\PSoC5/CharLCD_1.c **** 
 402:Generated_Source\PSoC5/CharLCD_1.c ****         /* 360 ns delay setup time for data pins */
 403:Generated_Source\PSoC5/CharLCD_1.c ****         CyDelayUs(1u);
 605              		.loc 1 403 0
 606 008e 0120     		movs	r0, #1
 607 0090 FFF7FEFF 		bl	CyDelayUs
 404:Generated_Source\PSoC5/CharLCD_1.c **** 
 405:Generated_Source\PSoC5/CharLCD_1.c ****         /* Get port state */
 406:Generated_Source\PSoC5/CharLCD_1.c ****         value = CharLCD_1_PORT_PS_REG;
 608              		.loc 1 406 0
 609 0094 374B     		ldr	r3, .L33+16
 610 0096 1B78     		ldrb	r3, [r3]
 611 0098 FB70     		strb	r3, [r7, #3]
 407:Generated_Source\PSoC5/CharLCD_1.c **** 
 408:Generated_Source\PSoC5/CharLCD_1.c ****         /* Set enable low */
 409:Generated_Source\PSoC5/CharLCD_1.c ****         CharLCD_1_PORT_DR_REG &= ((uint8)(~CharLCD_1_E));
 612              		.loc 1 409 0
 613 009a 324A     		ldr	r2, .L33
 614 009c 314B     		ldr	r3, .L33
 615 009e 1B78     		ldrb	r3, [r3]
 616 00a0 DBB2     		uxtb	r3, r3
ARM GAS  C:\Users\shkoli\AppData\Local\Temp\cc5ETAli.s 			page 19


 617 00a2 23F01003 		bic	r3, r3, #16
 618 00a6 DBB2     		uxtb	r3, r3
 619 00a8 1370     		strb	r3, [r2]
 410:Generated_Source\PSoC5/CharLCD_1.c **** 
 411:Generated_Source\PSoC5/CharLCD_1.c ****         /* This gives true delay between disabling Enable bit and polling Ready bit */
 412:Generated_Source\PSoC5/CharLCD_1.c ****         CyDelayUs(0u);
 620              		.loc 1 412 0
 621 00aa 0020     		movs	r0, #0
 622 00ac FFF7FEFF 		bl	CyDelayUs
 413:Generated_Source\PSoC5/CharLCD_1.c **** 
 414:Generated_Source\PSoC5/CharLCD_1.c ****         /* Extract ready bit */
 415:Generated_Source\PSoC5/CharLCD_1.c ****         value &= CharLCD_1_READY_BIT;
 623              		.loc 1 415 0
 624 00b0 FB78     		ldrb	r3, [r7, #3]
 625 00b2 03F00803 		and	r3, r3, #8
 626 00b6 FB70     		strb	r3, [r7, #3]
 416:Generated_Source\PSoC5/CharLCD_1.c **** 
 417:Generated_Source\PSoC5/CharLCD_1.c ****         /* Set E high as we in 4-bit interface we need extra operation */
 418:Generated_Source\PSoC5/CharLCD_1.c ****         CharLCD_1_PORT_DR_REG |= CharLCD_1_E;
 627              		.loc 1 418 0
 628 00b8 2A4A     		ldr	r2, .L33
 629 00ba 2A4B     		ldr	r3, .L33
 630 00bc 1B78     		ldrb	r3, [r3]
 631 00be DBB2     		uxtb	r3, r3
 632 00c0 43F01003 		orr	r3, r3, #16
 633 00c4 DBB2     		uxtb	r3, r3
 634 00c6 1370     		strb	r3, [r2]
 419:Generated_Source\PSoC5/CharLCD_1.c **** 
 420:Generated_Source\PSoC5/CharLCD_1.c ****         /* 360 ns delay setup time for data pins */
 421:Generated_Source\PSoC5/CharLCD_1.c ****         CyDelayUs(1u);
 635              		.loc 1 421 0
 636 00c8 0120     		movs	r0, #1
 637 00ca FFF7FEFF 		bl	CyDelayUs
 422:Generated_Source\PSoC5/CharLCD_1.c **** 
 423:Generated_Source\PSoC5/CharLCD_1.c ****         /* Set enable low */
 424:Generated_Source\PSoC5/CharLCD_1.c ****         CharLCD_1_PORT_DR_REG &= ((uint8)(~CharLCD_1_E));
 638              		.loc 1 424 0
 639 00ce 254A     		ldr	r2, .L33
 640 00d0 244B     		ldr	r3, .L33
 641 00d2 1B78     		ldrb	r3, [r3]
 642 00d4 DBB2     		uxtb	r3, r3
 643 00d6 23F01003 		bic	r3, r3, #16
 644 00da DBB2     		uxtb	r3, r3
 645 00dc 1370     		strb	r3, [r2]
 425:Generated_Source\PSoC5/CharLCD_1.c **** 
 426:Generated_Source\PSoC5/CharLCD_1.c ****         /* If LCD is not ready make a delay */
 427:Generated_Source\PSoC5/CharLCD_1.c ****         if (value == 0u)
 646              		.loc 1 427 0
 647 00de FB78     		ldrb	r3, [r7, #3]	@ zero_extendqisi2
 648 00e0 002B     		cmp	r3, #0
 649 00e2 02D1     		bne	.L30
 428:Generated_Source\PSoC5/CharLCD_1.c ****         {
 429:Generated_Source\PSoC5/CharLCD_1.c ****             CyDelayUs(10u);
 650              		.loc 1 429 0
 651 00e4 0A20     		movs	r0, #10
 652 00e6 FFF7FEFF 		bl	CyDelayUs
 653              	.L30:
ARM GAS  C:\Users\shkoli\AppData\Local\Temp\cc5ETAli.s 			page 20


 430:Generated_Source\PSoC5/CharLCD_1.c ****         }
 431:Generated_Source\PSoC5/CharLCD_1.c **** 
 432:Generated_Source\PSoC5/CharLCD_1.c ****         /* Repeat until bit 4 is not zero or until timeout. */
 433:Generated_Source\PSoC5/CharLCD_1.c ****         timeout--;
 654              		.loc 1 433 0
 655 00ea 7B68     		ldr	r3, [r7, #4]
 656 00ec 013B     		subs	r3, r3, #1
 657 00ee 7B60     		str	r3, [r7, #4]
 434:Generated_Source\PSoC5/CharLCD_1.c **** 
 435:Generated_Source\PSoC5/CharLCD_1.c ****     } while ((value != 0u) && (timeout > 0u));
 658              		.loc 1 435 0
 659 00f0 FB78     		ldrb	r3, [r7, #3]	@ zero_extendqisi2
 660 00f2 002B     		cmp	r3, #0
 661 00f4 02D0     		beq	.L31
 662              		.loc 1 435 0 is_stmt 0 discriminator 1
 663 00f6 7B68     		ldr	r3, [r7, #4]
 664 00f8 002B     		cmp	r3, #0
 665 00fa BDD1     		bne	.L32
 666              	.L31:
 436:Generated_Source\PSoC5/CharLCD_1.c **** 
 437:Generated_Source\PSoC5/CharLCD_1.c ****     /* Set R/W low to write */
 438:Generated_Source\PSoC5/CharLCD_1.c ****     CharLCD_1_PORT_DR_REG &= ((uint8)(~CharLCD_1_RW));
 667              		.loc 1 438 0 is_stmt 1
 668 00fc 194A     		ldr	r2, .L33
 669 00fe 194B     		ldr	r3, .L33
 670 0100 1B78     		ldrb	r3, [r3]
 671 0102 DBB2     		uxtb	r3, r3
 672 0104 23F04003 		bic	r3, r3, #64
 673 0108 DBB2     		uxtb	r3, r3
 674 010a 1370     		strb	r3, [r2]
 439:Generated_Source\PSoC5/CharLCD_1.c **** 
 440:Generated_Source\PSoC5/CharLCD_1.c ****     /* Clear LCD port*/
 441:Generated_Source\PSoC5/CharLCD_1.c ****     CharLCD_1_PORT_DR_REG &= ((uint8)(~CharLCD_1_PORT_MASK));
 675              		.loc 1 441 0
 676 010c 154A     		ldr	r2, .L33
 677 010e 154B     		ldr	r3, .L33
 678 0110 1B78     		ldrb	r3, [r3]
 679 0112 DBB2     		uxtb	r3, r3
 680 0114 23F07F03 		bic	r3, r3, #127
 681 0118 DBB2     		uxtb	r3, r3
 682 011a 1370     		strb	r3, [r2]
 442:Generated_Source\PSoC5/CharLCD_1.c **** 
 443:Generated_Source\PSoC5/CharLCD_1.c ****     #if (CY_PSOC4)
 444:Generated_Source\PSoC5/CharLCD_1.c ****         
 445:Generated_Source\PSoC5/CharLCD_1.c ****         /* Mask off data pins to clear old values out */
 446:Generated_Source\PSoC5/CharLCD_1.c ****         value = CharLCD_1_PORT_PC_REG & ((uint32)(~ CharLCD_1_DM_DATA_MASK));
 447:Generated_Source\PSoC5/CharLCD_1.c ****         /* Load in high Z values for data pins, others unchanged */
 448:Generated_Source\PSoC5/CharLCD_1.c ****         CharLCD_1_PORT_PC_REG = value | CharLCD_1_STRONG_DATA_DM;
 449:Generated_Source\PSoC5/CharLCD_1.c **** 
 450:Generated_Source\PSoC5/CharLCD_1.c ****     #else
 451:Generated_Source\PSoC5/CharLCD_1.c **** 
 452:Generated_Source\PSoC5/CharLCD_1.c ****         /* Change Port to Output (Strong) on data pins */
 453:Generated_Source\PSoC5/CharLCD_1.c ****         /* Mask off data pins to clear high z values out. Configure data pins 
 454:Generated_Source\PSoC5/CharLCD_1.c ****         * to Strong Drive, others unchanged.
 455:Generated_Source\PSoC5/CharLCD_1.c ****         */
 456:Generated_Source\PSoC5/CharLCD_1.c ****         CharLCD_1_PORT_DM0_REG &= ((uint8)(~CharLCD_1_DATA_MASK));
 683              		.loc 1 456 0
ARM GAS  C:\Users\shkoli\AppData\Local\Temp\cc5ETAli.s 			page 21


 684 011c 124A     		ldr	r2, .L33+4
 685 011e 124B     		ldr	r3, .L33+4
 686 0120 1B78     		ldrb	r3, [r3]
 687 0122 DBB2     		uxtb	r3, r3
 688 0124 23F00F03 		bic	r3, r3, #15
 689 0128 DBB2     		uxtb	r3, r3
 690 012a 1370     		strb	r3, [r2]
 457:Generated_Source\PSoC5/CharLCD_1.c ****         /* Mask off data pins to clear high z values out */
 458:Generated_Source\PSoC5/CharLCD_1.c ****         value = CharLCD_1_PORT_DM1_REG & ((uint8)(~CharLCD_1_DATA_MASK));
 691              		.loc 1 458 0
 692 012c 0F4B     		ldr	r3, .L33+8
 693 012e 1B78     		ldrb	r3, [r3]
 694 0130 DBB2     		uxtb	r3, r3
 695 0132 23F00F03 		bic	r3, r3, #15
 696 0136 FB70     		strb	r3, [r7, #3]
 459:Generated_Source\PSoC5/CharLCD_1.c ****         /* Configure data pins to Strong Drive, others unchanged */
 460:Generated_Source\PSoC5/CharLCD_1.c ****         CharLCD_1_PORT_DM1_REG = value | (CharLCD_1_STRONG_DM1 & CharLCD_1_DATA_MASK);
 697              		.loc 1 460 0
 698 0138 0C4A     		ldr	r2, .L33+8
 699 013a FB78     		ldrb	r3, [r7, #3]
 700 013c 43F00F03 		orr	r3, r3, #15
 701 0140 DBB2     		uxtb	r3, r3
 702 0142 1370     		strb	r3, [r2]
 461:Generated_Source\PSoC5/CharLCD_1.c **** 
 462:Generated_Source\PSoC5/CharLCD_1.c ****         /* Mask off data pins to clear high z values out */
 463:Generated_Source\PSoC5/CharLCD_1.c ****         value = CharLCD_1_PORT_DM2_REG & ((uint8)(~CharLCD_1_DATA_MASK));
 703              		.loc 1 463 0
 704 0144 0A4B     		ldr	r3, .L33+12
 705 0146 1B78     		ldrb	r3, [r3]
 706 0148 DBB2     		uxtb	r3, r3
 707 014a 23F00F03 		bic	r3, r3, #15
 708 014e FB70     		strb	r3, [r7, #3]
 464:Generated_Source\PSoC5/CharLCD_1.c ****         /* Configure data pins to Strong Drive, others unchanged */
 465:Generated_Source\PSoC5/CharLCD_1.c ****         CharLCD_1_PORT_DM2_REG = value | (CharLCD_1_STRONG_DM2 & CharLCD_1_DATA_MASK);
 709              		.loc 1 465 0
 710 0150 074A     		ldr	r2, .L33+12
 711 0152 FB78     		ldrb	r3, [r7, #3]
 712 0154 43F00F03 		orr	r3, r3, #15
 713 0158 DBB2     		uxtb	r3, r3
 714 015a 1370     		strb	r3, [r2]
 466:Generated_Source\PSoC5/CharLCD_1.c ****     
 467:Generated_Source\PSoC5/CharLCD_1.c ****     #endif /* CY_PSOC4 */
 468:Generated_Source\PSoC5/CharLCD_1.c **** }
 715              		.loc 1 468 0
 716 015c 00BF     		nop
 717 015e 0837     		adds	r7, r7, #8
 718              		.cfi_def_cfa_offset 8
 719 0160 BD46     		mov	sp, r7
 720              		.cfi_def_cfa_register 13
 721              		@ sp needed
 722 0162 80BD     		pop	{r7, pc}
 723              	.L34:
 724              		.align	2
 725              	.L33:
 726 0164 20510040 		.word	1073762592
 727 0168 22510040 		.word	1073762594
 728 016c 23510040 		.word	1073762595
ARM GAS  C:\Users\shkoli\AppData\Local\Temp\cc5ETAli.s 			page 22


 729 0170 24510040 		.word	1073762596
 730 0174 21510040 		.word	1073762593
 731              		.cfi_endproc
 732              	.LFE9:
 733              		.size	CharLCD_1_IsReady, .-CharLCD_1_IsReady
 734              		.section	.text.CharLCD_1_WrDatNib,"ax",%progbits
 735              		.align	2
 736              		.thumb
 737              		.thumb_func
 738              		.type	CharLCD_1_WrDatNib, %function
 739              	CharLCD_1_WrDatNib:
 740              	.LFB10:
 469:Generated_Source\PSoC5/CharLCD_1.c **** 
 470:Generated_Source\PSoC5/CharLCD_1.c **** 
 471:Generated_Source\PSoC5/CharLCD_1.c **** /*******************************************************************************
 472:Generated_Source\PSoC5/CharLCD_1.c **** *  Function Name: CharLCD_1_WrDatNib
 473:Generated_Source\PSoC5/CharLCD_1.c **** ********************************************************************************
 474:Generated_Source\PSoC5/CharLCD_1.c **** *
 475:Generated_Source\PSoC5/CharLCD_1.c **** * Summary:
 476:Generated_Source\PSoC5/CharLCD_1.c **** *  Writes a data nibble to the LCD module.
 477:Generated_Source\PSoC5/CharLCD_1.c **** *
 478:Generated_Source\PSoC5/CharLCD_1.c **** * Parameters:
 479:Generated_Source\PSoC5/CharLCD_1.c **** *  nibble:  Byte containing nibble in the least significant nibble to be
 480:Generated_Source\PSoC5/CharLCD_1.c **** *           written to the LCD module.
 481:Generated_Source\PSoC5/CharLCD_1.c **** *
 482:Generated_Source\PSoC5/CharLCD_1.c **** * Return:
 483:Generated_Source\PSoC5/CharLCD_1.c **** *  None.
 484:Generated_Source\PSoC5/CharLCD_1.c **** *
 485:Generated_Source\PSoC5/CharLCD_1.c **** *******************************************************************************/
 486:Generated_Source\PSoC5/CharLCD_1.c **** static void CharLCD_1_WrDatNib(uint8 nibble) 
 487:Generated_Source\PSoC5/CharLCD_1.c **** {
 741              		.loc 1 487 0
 742              		.cfi_startproc
 743              		@ args = 0, pretend = 0, frame = 8
 744              		@ frame_needed = 1, uses_anonymous_args = 0
 745 0000 80B5     		push	{r7, lr}
 746              		.cfi_def_cfa_offset 8
 747              		.cfi_offset 7, -8
 748              		.cfi_offset 14, -4
 749 0002 82B0     		sub	sp, sp, #8
 750              		.cfi_def_cfa_offset 16
 751 0004 00AF     		add	r7, sp, #0
 752              		.cfi_def_cfa_register 7
 753 0006 0346     		mov	r3, r0
 754 0008 FB71     		strb	r3, [r7, #7]
 488:Generated_Source\PSoC5/CharLCD_1.c ****     /* RS should be low to select data register */
 489:Generated_Source\PSoC5/CharLCD_1.c ****     CharLCD_1_PORT_DR_REG |= CharLCD_1_RS;
 755              		.loc 1 489 0
 756 000a 1A4A     		ldr	r2, .L36
 757 000c 194B     		ldr	r3, .L36
 758 000e 1B78     		ldrb	r3, [r3]
 759 0010 DBB2     		uxtb	r3, r3
 760 0012 43F02003 		orr	r3, r3, #32
 761 0016 DBB2     		uxtb	r3, r3
 762 0018 1370     		strb	r3, [r2]
 490:Generated_Source\PSoC5/CharLCD_1.c ****     /* Reset RW for write operation */
 491:Generated_Source\PSoC5/CharLCD_1.c ****     CharLCD_1_PORT_DR_REG &= ((uint8)(~CharLCD_1_RW));
ARM GAS  C:\Users\shkoli\AppData\Local\Temp\cc5ETAli.s 			page 23


 763              		.loc 1 491 0
 764 001a 164A     		ldr	r2, .L36
 765 001c 154B     		ldr	r3, .L36
 766 001e 1B78     		ldrb	r3, [r3]
 767 0020 DBB2     		uxtb	r3, r3
 768 0022 23F04003 		bic	r3, r3, #64
 769 0026 DBB2     		uxtb	r3, r3
 770 0028 1370     		strb	r3, [r2]
 492:Generated_Source\PSoC5/CharLCD_1.c **** 
 493:Generated_Source\PSoC5/CharLCD_1.c ****     /* Guaranteed delay between Setting RS and RW and setting E bits */
 494:Generated_Source\PSoC5/CharLCD_1.c ****     CyDelayUs(0u);
 771              		.loc 1 494 0
 772 002a 0020     		movs	r0, #0
 773 002c FFF7FEFF 		bl	CyDelayUs
 495:Generated_Source\PSoC5/CharLCD_1.c ****     
 496:Generated_Source\PSoC5/CharLCD_1.c ****     /* Clear data pins */
 497:Generated_Source\PSoC5/CharLCD_1.c ****     CharLCD_1_PORT_DR_REG &= ((uint8)(~CharLCD_1_DATA_MASK));
 774              		.loc 1 497 0
 775 0030 104A     		ldr	r2, .L36
 776 0032 104B     		ldr	r3, .L36
 777 0034 1B78     		ldrb	r3, [r3]
 778 0036 DBB2     		uxtb	r3, r3
 779 0038 23F00F03 		bic	r3, r3, #15
 780 003c DBB2     		uxtb	r3, r3
 781 003e 1370     		strb	r3, [r2]
 498:Generated_Source\PSoC5/CharLCD_1.c **** 
 499:Generated_Source\PSoC5/CharLCD_1.c ****     /* Write data, bring E high */
 500:Generated_Source\PSoC5/CharLCD_1.c ****     #if(0u != CharLCD_1_PORT_SHIFT) /* MISRA forbids shift by 0 so need to handle that */
 501:Generated_Source\PSoC5/CharLCD_1.c ****         CharLCD_1_PORT_DR_REG |= 
 502:Generated_Source\PSoC5/CharLCD_1.c ****             (CharLCD_1_E | ((uint8)(((uint8) nibble) << CharLCD_1_PORT_SHIFT)));
 503:Generated_Source\PSoC5/CharLCD_1.c ****     #else
 504:Generated_Source\PSoC5/CharLCD_1.c ****         CharLCD_1_PORT_DR_REG |= (CharLCD_1_E | nibble);
 782              		.loc 1 504 0
 783 0040 0C49     		ldr	r1, .L36
 784 0042 0C4B     		ldr	r3, .L36
 785 0044 1B78     		ldrb	r3, [r3]
 786 0046 DAB2     		uxtb	r2, r3
 787 0048 FB79     		ldrb	r3, [r7, #7]
 788 004a 1343     		orrs	r3, r3, r2
 789 004c DBB2     		uxtb	r3, r3
 790 004e 43F01003 		orr	r3, r3, #16
 791 0052 DBB2     		uxtb	r3, r3
 792 0054 0B70     		strb	r3, [r1]
 505:Generated_Source\PSoC5/CharLCD_1.c ****     #endif /* (0u != CharLCD_1_PORT_SHIFT) */
 506:Generated_Source\PSoC5/CharLCD_1.c **** 
 507:Generated_Source\PSoC5/CharLCD_1.c ****     /* Minimum of 230 ns delay */
 508:Generated_Source\PSoC5/CharLCD_1.c ****     CyDelayUs(1u);
 793              		.loc 1 508 0
 794 0056 0120     		movs	r0, #1
 795 0058 FFF7FEFF 		bl	CyDelayUs
 509:Generated_Source\PSoC5/CharLCD_1.c **** 
 510:Generated_Source\PSoC5/CharLCD_1.c ****     CharLCD_1_PORT_DR_REG &= ((uint8)(~CharLCD_1_E));
 796              		.loc 1 510 0
 797 005c 054A     		ldr	r2, .L36
 798 005e 054B     		ldr	r3, .L36
 799 0060 1B78     		ldrb	r3, [r3]
 800 0062 DBB2     		uxtb	r3, r3
ARM GAS  C:\Users\shkoli\AppData\Local\Temp\cc5ETAli.s 			page 24


 801 0064 23F01003 		bic	r3, r3, #16
 802 0068 DBB2     		uxtb	r3, r3
 803 006a 1370     		strb	r3, [r2]
 511:Generated_Source\PSoC5/CharLCD_1.c **** }
 804              		.loc 1 511 0
 805 006c 00BF     		nop
 806 006e 0837     		adds	r7, r7, #8
 807              		.cfi_def_cfa_offset 8
 808 0070 BD46     		mov	sp, r7
 809              		.cfi_def_cfa_register 13
 810              		@ sp needed
 811 0072 80BD     		pop	{r7, pc}
 812              	.L37:
 813              		.align	2
 814              	.L36:
 815 0074 20510040 		.word	1073762592
 816              		.cfi_endproc
 817              	.LFE10:
 818              		.size	CharLCD_1_WrDatNib, .-CharLCD_1_WrDatNib
 819              		.section	.text.CharLCD_1_WrCntrlNib,"ax",%progbits
 820              		.align	2
 821              		.thumb
 822              		.thumb_func
 823              		.type	CharLCD_1_WrCntrlNib, %function
 824              	CharLCD_1_WrCntrlNib:
 825              	.LFB11:
 512:Generated_Source\PSoC5/CharLCD_1.c **** 
 513:Generated_Source\PSoC5/CharLCD_1.c **** 
 514:Generated_Source\PSoC5/CharLCD_1.c **** /*******************************************************************************
 515:Generated_Source\PSoC5/CharLCD_1.c **** *  Function Name: CharLCD_1_WrCntrlNib
 516:Generated_Source\PSoC5/CharLCD_1.c **** ********************************************************************************
 517:Generated_Source\PSoC5/CharLCD_1.c **** *
 518:Generated_Source\PSoC5/CharLCD_1.c **** * Summary:
 519:Generated_Source\PSoC5/CharLCD_1.c **** *  Writes a control nibble to the LCD module.
 520:Generated_Source\PSoC5/CharLCD_1.c **** *
 521:Generated_Source\PSoC5/CharLCD_1.c **** * Parameters:
 522:Generated_Source\PSoC5/CharLCD_1.c **** *  nibble: The byte containing a nibble in the four least significant bits.????
 523:Generated_Source\PSoC5/CharLCD_1.c **** *
 524:Generated_Source\PSoC5/CharLCD_1.c **** * Return:
 525:Generated_Source\PSoC5/CharLCD_1.c **** *  None.
 526:Generated_Source\PSoC5/CharLCD_1.c **** *
 527:Generated_Source\PSoC5/CharLCD_1.c **** *******************************************************************************/
 528:Generated_Source\PSoC5/CharLCD_1.c **** static void CharLCD_1_WrCntrlNib(uint8 nibble) 
 529:Generated_Source\PSoC5/CharLCD_1.c **** {
 826              		.loc 1 529 0
 827              		.cfi_startproc
 828              		@ args = 0, pretend = 0, frame = 8
 829              		@ frame_needed = 1, uses_anonymous_args = 0
 830 0000 80B5     		push	{r7, lr}
 831              		.cfi_def_cfa_offset 8
 832              		.cfi_offset 7, -8
 833              		.cfi_offset 14, -4
 834 0002 82B0     		sub	sp, sp, #8
 835              		.cfi_def_cfa_offset 16
 836 0004 00AF     		add	r7, sp, #0
 837              		.cfi_def_cfa_register 7
 838 0006 0346     		mov	r3, r0
ARM GAS  C:\Users\shkoli\AppData\Local\Temp\cc5ETAli.s 			page 25


 839 0008 FB71     		strb	r3, [r7, #7]
 530:Generated_Source\PSoC5/CharLCD_1.c ****     /* RS and RW should be low to select instruction register and  write operation respectively */
 531:Generated_Source\PSoC5/CharLCD_1.c ****     CharLCD_1_PORT_DR_REG &= ((uint8)(~(CharLCD_1_RS | CharLCD_1_RW)));
 840              		.loc 1 531 0
 841 000a 154A     		ldr	r2, .L39
 842 000c 144B     		ldr	r3, .L39
 843 000e 1B78     		ldrb	r3, [r3]
 844 0010 DBB2     		uxtb	r3, r3
 845 0012 23F06003 		bic	r3, r3, #96
 846 0016 DBB2     		uxtb	r3, r3
 847 0018 1370     		strb	r3, [r2]
 532:Generated_Source\PSoC5/CharLCD_1.c **** 
 533:Generated_Source\PSoC5/CharLCD_1.c ****     /* Two following lines of code will give 40ns delay */
 534:Generated_Source\PSoC5/CharLCD_1.c ****     /* Clear data pins */
 535:Generated_Source\PSoC5/CharLCD_1.c ****     CharLCD_1_PORT_DR_REG &= ((uint8)(~CharLCD_1_DATA_MASK));
 848              		.loc 1 535 0
 849 001a 114A     		ldr	r2, .L39
 850 001c 104B     		ldr	r3, .L39
 851 001e 1B78     		ldrb	r3, [r3]
 852 0020 DBB2     		uxtb	r3, r3
 853 0022 23F00F03 		bic	r3, r3, #15
 854 0026 DBB2     		uxtb	r3, r3
 855 0028 1370     		strb	r3, [r2]
 536:Generated_Source\PSoC5/CharLCD_1.c **** 
 537:Generated_Source\PSoC5/CharLCD_1.c ****     /* Write control data and set enable signal */
 538:Generated_Source\PSoC5/CharLCD_1.c ****     #if(0u != CharLCD_1_PORT_SHIFT) /* MISRA forbids shift by 0 so need to handle that */
 539:Generated_Source\PSoC5/CharLCD_1.c ****         CharLCD_1_PORT_DR_REG |= 
 540:Generated_Source\PSoC5/CharLCD_1.c ****             (CharLCD_1_E | ((uint8)(((uint8) nibble) << CharLCD_1_PORT_SHIFT)));
 541:Generated_Source\PSoC5/CharLCD_1.c ****     #else
 542:Generated_Source\PSoC5/CharLCD_1.c ****         CharLCD_1_PORT_DR_REG |= (CharLCD_1_E | nibble);
 856              		.loc 1 542 0
 857 002a 0D49     		ldr	r1, .L39
 858 002c 0C4B     		ldr	r3, .L39
 859 002e 1B78     		ldrb	r3, [r3]
 860 0030 DAB2     		uxtb	r2, r3
 861 0032 FB79     		ldrb	r3, [r7, #7]
 862 0034 1343     		orrs	r3, r3, r2
 863 0036 DBB2     		uxtb	r3, r3
 864 0038 43F01003 		orr	r3, r3, #16
 865 003c DBB2     		uxtb	r3, r3
 866 003e 0B70     		strb	r3, [r1]
 543:Generated_Source\PSoC5/CharLCD_1.c ****     #endif /* (0u != CharLCD_1_PORT_SHIFT) */
 544:Generated_Source\PSoC5/CharLCD_1.c **** 
 545:Generated_Source\PSoC5/CharLCD_1.c ****     /* Minimum of 230 ns delay */
 546:Generated_Source\PSoC5/CharLCD_1.c ****     CyDelayUs(1u);
 867              		.loc 1 546 0
 868 0040 0120     		movs	r0, #1
 869 0042 FFF7FEFF 		bl	CyDelayUs
 547:Generated_Source\PSoC5/CharLCD_1.c **** 
 548:Generated_Source\PSoC5/CharLCD_1.c ****     CharLCD_1_PORT_DR_REG &= ((uint8)(~CharLCD_1_E));
 870              		.loc 1 548 0
 871 0046 064A     		ldr	r2, .L39
 872 0048 054B     		ldr	r3, .L39
 873 004a 1B78     		ldrb	r3, [r3]
 874 004c DBB2     		uxtb	r3, r3
 875 004e 23F01003 		bic	r3, r3, #16
 876 0052 DBB2     		uxtb	r3, r3
ARM GAS  C:\Users\shkoli\AppData\Local\Temp\cc5ETAli.s 			page 26


 877 0054 1370     		strb	r3, [r2]
 549:Generated_Source\PSoC5/CharLCD_1.c **** }
 878              		.loc 1 549 0
 879 0056 00BF     		nop
 880 0058 0837     		adds	r7, r7, #8
 881              		.cfi_def_cfa_offset 8
 882 005a BD46     		mov	sp, r7
 883              		.cfi_def_cfa_register 13
 884              		@ sp needed
 885 005c 80BD     		pop	{r7, pc}
 886              	.L40:
 887 005e 00BF     		.align	2
 888              	.L39:
 889 0060 20510040 		.word	1073762592
 890              		.cfi_endproc
 891              	.LFE11:
 892              		.size	CharLCD_1_WrCntrlNib, .-CharLCD_1_WrCntrlNib
 893              		.section	.text.CharLCD_1_PrintInt8,"ax",%progbits
 894              		.align	2
 895              		.global	CharLCD_1_PrintInt8
 896              		.thumb
 897              		.thumb_func
 898              		.type	CharLCD_1_PrintInt8, %function
 899              	CharLCD_1_PrintInt8:
 900              	.LFB12:
 550:Generated_Source\PSoC5/CharLCD_1.c **** 
 551:Generated_Source\PSoC5/CharLCD_1.c **** 
 552:Generated_Source\PSoC5/CharLCD_1.c **** #if(CharLCD_1_CONVERSION_ROUTINES == 1u)
 553:Generated_Source\PSoC5/CharLCD_1.c **** 
 554:Generated_Source\PSoC5/CharLCD_1.c ****     /*******************************************************************************
 555:Generated_Source\PSoC5/CharLCD_1.c ****     *  Function Name: CharLCD_1_PrintInt8
 556:Generated_Source\PSoC5/CharLCD_1.c ****     ********************************************************************************
 557:Generated_Source\PSoC5/CharLCD_1.c ****     *
 558:Generated_Source\PSoC5/CharLCD_1.c ****     * Summary:
 559:Generated_Source\PSoC5/CharLCD_1.c ****     *  Print a byte as two ASCII characters.
 560:Generated_Source\PSoC5/CharLCD_1.c ****     *
 561:Generated_Source\PSoC5/CharLCD_1.c ****     * Parameters:
 562:Generated_Source\PSoC5/CharLCD_1.c ****     *  value: The byte to be printed out as ASCII characters.
 563:Generated_Source\PSoC5/CharLCD_1.c ****     *
 564:Generated_Source\PSoC5/CharLCD_1.c ****     * Return:
 565:Generated_Source\PSoC5/CharLCD_1.c ****     *  None.
 566:Generated_Source\PSoC5/CharLCD_1.c ****     *
 567:Generated_Source\PSoC5/CharLCD_1.c ****     *******************************************************************************/
 568:Generated_Source\PSoC5/CharLCD_1.c ****     void CharLCD_1_PrintInt8(uint8 value) 
 569:Generated_Source\PSoC5/CharLCD_1.c ****     {
 901              		.loc 1 569 0
 902              		.cfi_startproc
 903              		@ args = 0, pretend = 0, frame = 8
 904              		@ frame_needed = 1, uses_anonymous_args = 0
 905 0000 80B5     		push	{r7, lr}
 906              		.cfi_def_cfa_offset 8
 907              		.cfi_offset 7, -8
 908              		.cfi_offset 14, -4
 909 0002 82B0     		sub	sp, sp, #8
 910              		.cfi_def_cfa_offset 16
 911 0004 00AF     		add	r7, sp, #0
 912              		.cfi_def_cfa_register 7
ARM GAS  C:\Users\shkoli\AppData\Local\Temp\cc5ETAli.s 			page 27


 913 0006 0346     		mov	r3, r0
 914 0008 FB71     		strb	r3, [r7, #7]
 570:Generated_Source\PSoC5/CharLCD_1.c ****         static char8 const CYCODE CharLCD_1_hex[16u] = "0123456789ABCDEF";
 571:Generated_Source\PSoC5/CharLCD_1.c ****         
 572:Generated_Source\PSoC5/CharLCD_1.c ****         CharLCD_1_PutChar((char8) CharLCD_1_hex[value >> CharLCD_1_BYTE_UPPER_NIBBLE_SHIFT]);
 915              		.loc 1 572 0
 916 000a FB79     		ldrb	r3, [r7, #7]	@ zero_extendqisi2
 917 000c 1B09     		lsrs	r3, r3, #4
 918 000e DBB2     		uxtb	r3, r3
 919 0010 1A46     		mov	r2, r3
 920 0012 084B     		ldr	r3, .L42
 921 0014 9B5C     		ldrb	r3, [r3, r2]	@ zero_extendqisi2
 922 0016 1846     		mov	r0, r3
 923 0018 FFF7FEFF 		bl	CharLCD_1_PutChar
 573:Generated_Source\PSoC5/CharLCD_1.c ****         CharLCD_1_PutChar((char8) CharLCD_1_hex[value & CharLCD_1_BYTE_LOWER_NIBBLE_MASK]);
 924              		.loc 1 573 0
 925 001c FB79     		ldrb	r3, [r7, #7]	@ zero_extendqisi2
 926 001e 03F00F03 		and	r3, r3, #15
 927 0022 044A     		ldr	r2, .L42
 928 0024 D35C     		ldrb	r3, [r2, r3]	@ zero_extendqisi2
 929 0026 1846     		mov	r0, r3
 930 0028 FFF7FEFF 		bl	CharLCD_1_PutChar
 574:Generated_Source\PSoC5/CharLCD_1.c ****     }
 931              		.loc 1 574 0
 932 002c 00BF     		nop
 933 002e 0837     		adds	r7, r7, #8
 934              		.cfi_def_cfa_offset 8
 935 0030 BD46     		mov	sp, r7
 936              		.cfi_def_cfa_register 13
 937              		@ sp needed
 938 0032 80BD     		pop	{r7, pc}
 939              	.L43:
 940              		.align	2
 941              	.L42:
 942 0034 00000000 		.word	CharLCD_1_hex.5030
 943              		.cfi_endproc
 944              	.LFE12:
 945              		.size	CharLCD_1_PrintInt8, .-CharLCD_1_PrintInt8
 946              		.section	.text.CharLCD_1_PrintInt16,"ax",%progbits
 947              		.align	2
 948              		.global	CharLCD_1_PrintInt16
 949              		.thumb
 950              		.thumb_func
 951              		.type	CharLCD_1_PrintInt16, %function
 952              	CharLCD_1_PrintInt16:
 953              	.LFB13:
 575:Generated_Source\PSoC5/CharLCD_1.c **** 
 576:Generated_Source\PSoC5/CharLCD_1.c **** 
 577:Generated_Source\PSoC5/CharLCD_1.c ****     /*******************************************************************************
 578:Generated_Source\PSoC5/CharLCD_1.c ****     *  Function Name: CharLCD_1_PrintInt16
 579:Generated_Source\PSoC5/CharLCD_1.c ****     ********************************************************************************
 580:Generated_Source\PSoC5/CharLCD_1.c ****     *
 581:Generated_Source\PSoC5/CharLCD_1.c ****     * Summary:
 582:Generated_Source\PSoC5/CharLCD_1.c ****     *  Print a uint16 as four ASCII characters.
 583:Generated_Source\PSoC5/CharLCD_1.c ****     *
 584:Generated_Source\PSoC5/CharLCD_1.c ****     * Parameters:
 585:Generated_Source\PSoC5/CharLCD_1.c ****     *  value: The uint16 to be printed out as ASCII characters.
ARM GAS  C:\Users\shkoli\AppData\Local\Temp\cc5ETAli.s 			page 28


 586:Generated_Source\PSoC5/CharLCD_1.c ****     *
 587:Generated_Source\PSoC5/CharLCD_1.c ****     * Return:
 588:Generated_Source\PSoC5/CharLCD_1.c ****     *  None.
 589:Generated_Source\PSoC5/CharLCD_1.c ****     *
 590:Generated_Source\PSoC5/CharLCD_1.c ****     *******************************************************************************/
 591:Generated_Source\PSoC5/CharLCD_1.c ****     void CharLCD_1_PrintInt16(uint16 value) 
 592:Generated_Source\PSoC5/CharLCD_1.c ****     {
 954              		.loc 1 592 0
 955              		.cfi_startproc
 956              		@ args = 0, pretend = 0, frame = 8
 957              		@ frame_needed = 1, uses_anonymous_args = 0
 958 0000 80B5     		push	{r7, lr}
 959              		.cfi_def_cfa_offset 8
 960              		.cfi_offset 7, -8
 961              		.cfi_offset 14, -4
 962 0002 82B0     		sub	sp, sp, #8
 963              		.cfi_def_cfa_offset 16
 964 0004 00AF     		add	r7, sp, #0
 965              		.cfi_def_cfa_register 7
 966 0006 0346     		mov	r3, r0
 967 0008 FB80     		strh	r3, [r7, #6]	@ movhi
 593:Generated_Source\PSoC5/CharLCD_1.c ****         CharLCD_1_PrintInt8((uint8)(value >> CharLCD_1_U16_UPPER_BYTE_SHIFT));
 968              		.loc 1 593 0
 969 000a FB88     		ldrh	r3, [r7, #6]
 970 000c 1B0A     		lsrs	r3, r3, #8
 971 000e 9BB2     		uxth	r3, r3
 972 0010 DBB2     		uxtb	r3, r3
 973 0012 1846     		mov	r0, r3
 974 0014 FFF7FEFF 		bl	CharLCD_1_PrintInt8
 594:Generated_Source\PSoC5/CharLCD_1.c ****         CharLCD_1_PrintInt8((uint8)(value & CharLCD_1_U16_LOWER_BYTE_MASK));
 975              		.loc 1 594 0
 976 0018 FB88     		ldrh	r3, [r7, #6]	@ movhi
 977 001a DBB2     		uxtb	r3, r3
 978 001c 1846     		mov	r0, r3
 979 001e FFF7FEFF 		bl	CharLCD_1_PrintInt8
 595:Generated_Source\PSoC5/CharLCD_1.c ****     }
 980              		.loc 1 595 0
 981 0022 00BF     		nop
 982 0024 0837     		adds	r7, r7, #8
 983              		.cfi_def_cfa_offset 8
 984 0026 BD46     		mov	sp, r7
 985              		.cfi_def_cfa_register 13
 986              		@ sp needed
 987 0028 80BD     		pop	{r7, pc}
 988              		.cfi_endproc
 989              	.LFE13:
 990              		.size	CharLCD_1_PrintInt16, .-CharLCD_1_PrintInt16
 991 002a 00BF     		.section	.text.CharLCD_1_PrintInt32,"ax",%progbits
 992              		.align	2
 993              		.global	CharLCD_1_PrintInt32
 994              		.thumb
 995              		.thumb_func
 996              		.type	CharLCD_1_PrintInt32, %function
 997              	CharLCD_1_PrintInt32:
 998              	.LFB14:
 596:Generated_Source\PSoC5/CharLCD_1.c **** 
 597:Generated_Source\PSoC5/CharLCD_1.c ****     
ARM GAS  C:\Users\shkoli\AppData\Local\Temp\cc5ETAli.s 			page 29


 598:Generated_Source\PSoC5/CharLCD_1.c ****     /*******************************************************************************
 599:Generated_Source\PSoC5/CharLCD_1.c ****     *  Function Name: CharLCD_1_PrintInt32
 600:Generated_Source\PSoC5/CharLCD_1.c ****     ********************************************************************************
 601:Generated_Source\PSoC5/CharLCD_1.c ****     *
 602:Generated_Source\PSoC5/CharLCD_1.c ****     * Summary:
 603:Generated_Source\PSoC5/CharLCD_1.c ****     *  Print a uint32 hexadecimal number as eight ASCII characters.
 604:Generated_Source\PSoC5/CharLCD_1.c ****     *
 605:Generated_Source\PSoC5/CharLCD_1.c ****     * Parameters:
 606:Generated_Source\PSoC5/CharLCD_1.c ****     *  value: The uint32 to be printed out as ASCII characters.
 607:Generated_Source\PSoC5/CharLCD_1.c ****     *
 608:Generated_Source\PSoC5/CharLCD_1.c ****     * Return:
 609:Generated_Source\PSoC5/CharLCD_1.c ****     *  None.
 610:Generated_Source\PSoC5/CharLCD_1.c ****     *
 611:Generated_Source\PSoC5/CharLCD_1.c ****     *******************************************************************************/
 612:Generated_Source\PSoC5/CharLCD_1.c ****     void CharLCD_1_PrintInt32(uint32 value) 
 613:Generated_Source\PSoC5/CharLCD_1.c ****     {
 999              		.loc 1 613 0
 1000              		.cfi_startproc
 1001              		@ args = 0, pretend = 0, frame = 16
 1002              		@ frame_needed = 1, uses_anonymous_args = 0
 1003 0000 80B5     		push	{r7, lr}
 1004              		.cfi_def_cfa_offset 8
 1005              		.cfi_offset 7, -8
 1006              		.cfi_offset 14, -4
 1007 0002 84B0     		sub	sp, sp, #16
 1008              		.cfi_def_cfa_offset 24
 1009 0004 00AF     		add	r7, sp, #0
 1010              		.cfi_def_cfa_register 7
 1011 0006 7860     		str	r0, [r7, #4]
 614:Generated_Source\PSoC5/CharLCD_1.c ****         uint8 shift = CharLCD_1_32_BIT_SHIFT;
 1012              		.loc 1 614 0
 1013 0008 2023     		movs	r3, #32
 1014 000a FB73     		strb	r3, [r7, #15]
 615:Generated_Source\PSoC5/CharLCD_1.c ****         
 616:Generated_Source\PSoC5/CharLCD_1.c ****         while (shift != 0u)
 1015              		.loc 1 616 0
 1016 000c 0AE0     		b	.L46
 1017              	.L47:
 617:Generated_Source\PSoC5/CharLCD_1.c ****         {
 618:Generated_Source\PSoC5/CharLCD_1.c ****             /* "shift" var is to be subtracted by 8 prior shifting. This implements 
 619:Generated_Source\PSoC5/CharLCD_1.c ****             * shifting by 24, 16, 8 and 0u. 
 620:Generated_Source\PSoC5/CharLCD_1.c ****             */
 621:Generated_Source\PSoC5/CharLCD_1.c ****             shift -= CharLCD_1_8_BIT_SHIFT;
 1018              		.loc 1 621 0
 1019 000e FB7B     		ldrb	r3, [r7, #15]
 1020 0010 083B     		subs	r3, r3, #8
 1021 0012 FB73     		strb	r3, [r7, #15]
 622:Generated_Source\PSoC5/CharLCD_1.c ****             
 623:Generated_Source\PSoC5/CharLCD_1.c ****             /* Print 8 bits of uint32 hex number */
 624:Generated_Source\PSoC5/CharLCD_1.c ****             CharLCD_1_PrintInt8((uint8) ((uint32) (value >> shift)));
 1022              		.loc 1 624 0
 1023 0014 FB7B     		ldrb	r3, [r7, #15]	@ zero_extendqisi2
 1024 0016 7A68     		ldr	r2, [r7, #4]
 1025 0018 22FA03F3 		lsr	r3, r2, r3
 1026 001c DBB2     		uxtb	r3, r3
 1027 001e 1846     		mov	r0, r3
 1028 0020 FFF7FEFF 		bl	CharLCD_1_PrintInt8
ARM GAS  C:\Users\shkoli\AppData\Local\Temp\cc5ETAli.s 			page 30


 1029              	.L46:
 616:Generated_Source\PSoC5/CharLCD_1.c ****         {
 1030              		.loc 1 616 0
 1031 0024 FB7B     		ldrb	r3, [r7, #15]	@ zero_extendqisi2
 1032 0026 002B     		cmp	r3, #0
 1033 0028 F1D1     		bne	.L47
 625:Generated_Source\PSoC5/CharLCD_1.c ****         }
 626:Generated_Source\PSoC5/CharLCD_1.c ****     }
 1034              		.loc 1 626 0
 1035 002a 00BF     		nop
 1036 002c 1037     		adds	r7, r7, #16
 1037              		.cfi_def_cfa_offset 8
 1038 002e BD46     		mov	sp, r7
 1039              		.cfi_def_cfa_register 13
 1040              		@ sp needed
 1041 0030 80BD     		pop	{r7, pc}
 1042              		.cfi_endproc
 1043              	.LFE14:
 1044              		.size	CharLCD_1_PrintInt32, .-CharLCD_1_PrintInt32
 1045 0032 00BF     		.section	.text.CharLCD_1_PrintU32Number,"ax",%progbits
 1046              		.align	2
 1047              		.global	CharLCD_1_PrintU32Number
 1048              		.thumb
 1049              		.thumb_func
 1050              		.type	CharLCD_1_PrintU32Number, %function
 1051              	CharLCD_1_PrintU32Number:
 1052              	.LFB15:
 627:Generated_Source\PSoC5/CharLCD_1.c ****     
 628:Generated_Source\PSoC5/CharLCD_1.c ****     
 629:Generated_Source\PSoC5/CharLCD_1.c ****     /*******************************************************************************
 630:Generated_Source\PSoC5/CharLCD_1.c ****     *  Function Name: CharLCD_1_PrintNumber
 631:Generated_Source\PSoC5/CharLCD_1.c ****     ********************************************************************************
 632:Generated_Source\PSoC5/CharLCD_1.c ****     *
 633:Generated_Source\PSoC5/CharLCD_1.c ****     * Summary:
 634:Generated_Source\PSoC5/CharLCD_1.c ****     *  Print an uint16 value as a left-justified decimal value.
 635:Generated_Source\PSoC5/CharLCD_1.c ****     *
 636:Generated_Source\PSoC5/CharLCD_1.c ****     * Parameters:
 637:Generated_Source\PSoC5/CharLCD_1.c ****     *  value: A 16-bit value to be printed in ASCII characters as a decimal number
 638:Generated_Source\PSoC5/CharLCD_1.c ****     *
 639:Generated_Source\PSoC5/CharLCD_1.c ****     * Return:
 640:Generated_Source\PSoC5/CharLCD_1.c ****     *  None.
 641:Generated_Source\PSoC5/CharLCD_1.c ****     *
 642:Generated_Source\PSoC5/CharLCD_1.c ****     * Note:
 643:Generated_Source\PSoC5/CharLCD_1.c ****     *  This function is implemented as a macro.
 644:Generated_Source\PSoC5/CharLCD_1.c ****     *
 645:Generated_Source\PSoC5/CharLCD_1.c ****     *******************************************************************************/
 646:Generated_Source\PSoC5/CharLCD_1.c **** 
 647:Generated_Source\PSoC5/CharLCD_1.c ****     
 648:Generated_Source\PSoC5/CharLCD_1.c ****     /*******************************************************************************
 649:Generated_Source\PSoC5/CharLCD_1.c ****     *  Function Name: CharLCD_1_PrintU32Number
 650:Generated_Source\PSoC5/CharLCD_1.c ****     ********************************************************************************
 651:Generated_Source\PSoC5/CharLCD_1.c ****     *
 652:Generated_Source\PSoC5/CharLCD_1.c ****     * Summary:
 653:Generated_Source\PSoC5/CharLCD_1.c ****     *  Print an uint32 value as a left-justified decimal value.
 654:Generated_Source\PSoC5/CharLCD_1.c ****     *
 655:Generated_Source\PSoC5/CharLCD_1.c ****     * Parameters:
 656:Generated_Source\PSoC5/CharLCD_1.c ****     *  value: A 32-bit value to be printed in ASCII characters as a decimal number
ARM GAS  C:\Users\shkoli\AppData\Local\Temp\cc5ETAli.s 			page 31


 657:Generated_Source\PSoC5/CharLCD_1.c ****     *
 658:Generated_Source\PSoC5/CharLCD_1.c ****     * Return:
 659:Generated_Source\PSoC5/CharLCD_1.c ****     *  None.
 660:Generated_Source\PSoC5/CharLCD_1.c ****     *
 661:Generated_Source\PSoC5/CharLCD_1.c ****     *******************************************************************************/
 662:Generated_Source\PSoC5/CharLCD_1.c ****     void CharLCD_1_PrintU32Number(uint32 value) 
 663:Generated_Source\PSoC5/CharLCD_1.c ****     {
 1053              		.loc 1 663 0
 1054              		.cfi_startproc
 1055              		@ args = 0, pretend = 0, frame = 24
 1056              		@ frame_needed = 1, uses_anonymous_args = 0
 1057 0000 80B5     		push	{r7, lr}
 1058              		.cfi_def_cfa_offset 8
 1059              		.cfi_offset 7, -8
 1060              		.cfi_offset 14, -4
 1061 0002 86B0     		sub	sp, sp, #24
 1062              		.cfi_def_cfa_offset 32
 1063 0004 00AF     		add	r7, sp, #0
 1064              		.cfi_def_cfa_register 7
 1065 0006 7860     		str	r0, [r7, #4]
 664:Generated_Source\PSoC5/CharLCD_1.c ****         uint8 tmpDigit;
 665:Generated_Source\PSoC5/CharLCD_1.c ****         char8 number[CharLCD_1_NUMBER_OF_REMAINDERS_U32 + 1u];
 666:Generated_Source\PSoC5/CharLCD_1.c ****         uint8 digIndex = CharLCD_1_NUMBER_OF_REMAINDERS_U32;
 1066              		.loc 1 666 0
 1067 0008 0A23     		movs	r3, #10
 1068 000a FB75     		strb	r3, [r7, #23]
 667:Generated_Source\PSoC5/CharLCD_1.c ****         
 668:Generated_Source\PSoC5/CharLCD_1.c ****         /* This API will output a decimal number as a string and that string will be 
 669:Generated_Source\PSoC5/CharLCD_1.c ****         * filled from end to start. Set Null termination character first.
 670:Generated_Source\PSoC5/CharLCD_1.c ****         */
 671:Generated_Source\PSoC5/CharLCD_1.c ****         number[digIndex] = (char8) '\0';
 1069              		.loc 1 671 0
 1070 000c FB7D     		ldrb	r3, [r7, #23]	@ zero_extendqisi2
 1071 000e 07F11802 		add	r2, r7, #24
 1072 0012 1344     		add	r3, r3, r2
 1073 0014 0022     		movs	r2, #0
 1074 0016 03F8102C 		strb	r2, [r3, #-16]
 672:Generated_Source\PSoC5/CharLCD_1.c ****         digIndex--;
 1075              		.loc 1 672 0
 1076 001a FB7D     		ldrb	r3, [r7, #23]	@ zero_extendqisi2
 1077 001c 013B     		subs	r3, r3, #1
 1078 001e FB75     		strb	r3, [r7, #23]
 673:Generated_Source\PSoC5/CharLCD_1.c ****         
 674:Generated_Source\PSoC5/CharLCD_1.c ****         /* Load these in reverse order */
 675:Generated_Source\PSoC5/CharLCD_1.c ****         while(value >= CharLCD_1_TEN)
 1079              		.loc 1 675 0
 1080 0020 1CE0     		b	.L49
 1081              	.L50:
 676:Generated_Source\PSoC5/CharLCD_1.c ****         {
 677:Generated_Source\PSoC5/CharLCD_1.c ****             /* Extract decimal digit, indexed by 'digIndex', from 'value' and
 678:Generated_Source\PSoC5/CharLCD_1.c ****             * convert it to ASCII character.
 679:Generated_Source\PSoC5/CharLCD_1.c ****             */
 680:Generated_Source\PSoC5/CharLCD_1.c ****             tmpDigit = (uint8) (((uint8) (value % CharLCD_1_TEN)) + (uint8) CharLCD_1_ZERO_CHAR_ASC
 1082              		.loc 1 680 0
 1083 0022 7968     		ldr	r1, [r7, #4]
 1084 0024 1E4B     		ldr	r3, .L51
 1085 0026 A3FB0123 		umull	r2, r3, r3, r1
ARM GAS  C:\Users\shkoli\AppData\Local\Temp\cc5ETAli.s 			page 32


 1086 002a DA08     		lsrs	r2, r3, #3
 1087 002c 1346     		mov	r3, r2
 1088 002e 9B00     		lsls	r3, r3, #2
 1089 0030 1344     		add	r3, r3, r2
 1090 0032 5B00     		lsls	r3, r3, #1
 1091 0034 CA1A     		subs	r2, r1, r3
 1092 0036 D3B2     		uxtb	r3, r2
 1093 0038 3033     		adds	r3, r3, #48
 1094 003a BB75     		strb	r3, [r7, #22]
 681:Generated_Source\PSoC5/CharLCD_1.c ****             
 682:Generated_Source\PSoC5/CharLCD_1.c ****             /* Temporary variable 'tmpDigit' is used to avoid Violation of MISRA rule 
 683:Generated_Source\PSoC5/CharLCD_1.c ****             * #10.3.
 684:Generated_Source\PSoC5/CharLCD_1.c ****             */
 685:Generated_Source\PSoC5/CharLCD_1.c ****             number[digIndex] = (char8) tmpDigit;
 1095              		.loc 1 685 0
 1096 003c FB7D     		ldrb	r3, [r7, #23]	@ zero_extendqisi2
 1097 003e 07F11802 		add	r2, r7, #24
 1098 0042 1344     		add	r3, r3, r2
 1099 0044 BA7D     		ldrb	r2, [r7, #22]
 1100 0046 03F8102C 		strb	r2, [r3, #-16]
 686:Generated_Source\PSoC5/CharLCD_1.c ****             value /= CharLCD_1_TEN;
 1101              		.loc 1 686 0
 1102 004a 7B68     		ldr	r3, [r7, #4]
 1103 004c 144A     		ldr	r2, .L51
 1104 004e A2FB0323 		umull	r2, r3, r2, r3
 1105 0052 DB08     		lsrs	r3, r3, #3
 1106 0054 7B60     		str	r3, [r7, #4]
 687:Generated_Source\PSoC5/CharLCD_1.c ****             digIndex--;
 1107              		.loc 1 687 0
 1108 0056 FB7D     		ldrb	r3, [r7, #23]	@ zero_extendqisi2
 1109 0058 013B     		subs	r3, r3, #1
 1110 005a FB75     		strb	r3, [r7, #23]
 1111              	.L49:
 675:Generated_Source\PSoC5/CharLCD_1.c ****         {
 1112              		.loc 1 675 0
 1113 005c 7B68     		ldr	r3, [r7, #4]
 1114 005e 092B     		cmp	r3, #9
 1115 0060 DFD8     		bhi	.L50
 688:Generated_Source\PSoC5/CharLCD_1.c ****         }
 689:Generated_Source\PSoC5/CharLCD_1.c ****         
 690:Generated_Source\PSoC5/CharLCD_1.c ****         /* Extract last decimal digit 'digIndex', from the 'value' and convert it
 691:Generated_Source\PSoC5/CharLCD_1.c ****         * to ASCII character.
 692:Generated_Source\PSoC5/CharLCD_1.c ****         */
 693:Generated_Source\PSoC5/CharLCD_1.c ****         tmpDigit = (uint8) (((uint8)(value % CharLCD_1_TEN)) + (uint8) CharLCD_1_ZERO_CHAR_ASCII);
 1116              		.loc 1 693 0
 1117 0062 7968     		ldr	r1, [r7, #4]
 1118 0064 0E4B     		ldr	r3, .L51
 1119 0066 A3FB0123 		umull	r2, r3, r3, r1
 1120 006a DA08     		lsrs	r2, r3, #3
 1121 006c 1346     		mov	r3, r2
 1122 006e 9B00     		lsls	r3, r3, #2
 1123 0070 1344     		add	r3, r3, r2
 1124 0072 5B00     		lsls	r3, r3, #1
 1125 0074 CA1A     		subs	r2, r1, r3
 1126 0076 D3B2     		uxtb	r3, r2
 1127 0078 3033     		adds	r3, r3, #48
 1128 007a BB75     		strb	r3, [r7, #22]
ARM GAS  C:\Users\shkoli\AppData\Local\Temp\cc5ETAli.s 			page 33


 694:Generated_Source\PSoC5/CharLCD_1.c ****         number[digIndex] = (char8) tmpDigit;
 1129              		.loc 1 694 0
 1130 007c FB7D     		ldrb	r3, [r7, #23]	@ zero_extendqisi2
 1131 007e 07F11802 		add	r2, r7, #24
 1132 0082 1344     		add	r3, r3, r2
 1133 0084 BA7D     		ldrb	r2, [r7, #22]
 1134 0086 03F8102C 		strb	r2, [r3, #-16]
 695:Generated_Source\PSoC5/CharLCD_1.c **** 
 696:Generated_Source\PSoC5/CharLCD_1.c ****         /* Print out number */
 697:Generated_Source\PSoC5/CharLCD_1.c ****         CharLCD_1_PrintString(&number[digIndex]);
 1135              		.loc 1 697 0
 1136 008a FB7D     		ldrb	r3, [r7, #23]	@ zero_extendqisi2
 1137 008c 07F10802 		add	r2, r7, #8
 1138 0090 1344     		add	r3, r3, r2
 1139 0092 1846     		mov	r0, r3
 1140 0094 FFF7FEFF 		bl	CharLCD_1_PrintString
 698:Generated_Source\PSoC5/CharLCD_1.c ****     }
 1141              		.loc 1 698 0
 1142 0098 00BF     		nop
 1143 009a 1837     		adds	r7, r7, #24
 1144              		.cfi_def_cfa_offset 8
 1145 009c BD46     		mov	sp, r7
 1146              		.cfi_def_cfa_register 13
 1147              		@ sp needed
 1148 009e 80BD     		pop	{r7, pc}
 1149              	.L52:
 1150              		.align	2
 1151              	.L51:
 1152 00a0 CDCCCCCC 		.word	-858993459
 1153              		.cfi_endproc
 1154              	.LFE15:
 1155              		.size	CharLCD_1_PrintU32Number, .-CharLCD_1_PrintU32Number
 1156              		.section	.rodata
 1157              		.align	2
 1158              		.type	CharLCD_1_hex.5030, %object
 1159              		.size	CharLCD_1_hex.5030, 16
 1160              	CharLCD_1_hex.5030:
 1161 0000 30313233 		.ascii	"0123456789ABCDEF"
 1161      34353637 
 1161      38394142 
 1161      43444546 
 1162              		.text
 1163              	.Letext0:
 1164              		.file 2 "Generated_Source\\PSoC5\\cytypes.h"
 1165              		.file 3 "Generated_Source\\PSoC5\\CharLCD_1.h"
 1166              		.section	.debug_info,"",%progbits
 1167              	.Ldebug_info0:
 1168 0000 F0030000 		.4byte	0x3f0
 1169 0004 0400     		.2byte	0x4
 1170 0006 00000000 		.4byte	.Ldebug_abbrev0
 1171 000a 04       		.byte	0x4
 1172 000b 01       		.uleb128 0x1
 1173 000c 23000000 		.4byte	.LASF53
 1174 0010 0C       		.byte	0xc
 1175 0011 00030000 		.4byte	.LASF54
 1176 0015 B1000000 		.4byte	.LASF55
 1177 0019 00000000 		.4byte	.Ldebug_ranges0+0
ARM GAS  C:\Users\shkoli\AppData\Local\Temp\cc5ETAli.s 			page 34


 1178 001d 00000000 		.4byte	0
 1179 0021 00000000 		.4byte	.Ldebug_line0
 1180 0025 02       		.uleb128 0x2
 1181 0026 04       		.byte	0x4
 1182 0027 05       		.byte	0x5
 1183 0028 696E7400 		.ascii	"int\000"
 1184 002c 03       		.uleb128 0x3
 1185 002d 04       		.byte	0x4
 1186 002e 07       		.byte	0x7
 1187 002f 50020000 		.4byte	.LASF0
 1188 0033 03       		.uleb128 0x3
 1189 0034 08       		.byte	0x8
 1190 0035 05       		.byte	0x5
 1191 0036 B6020000 		.4byte	.LASF1
 1192 003a 03       		.uleb128 0x3
 1193 003b 08       		.byte	0x8
 1194 003c 04       		.byte	0x4
 1195 003d 31030000 		.4byte	.LASF2
 1196 0041 03       		.uleb128 0x3
 1197 0042 01       		.byte	0x1
 1198 0043 06       		.byte	0x6
 1199 0044 51030000 		.4byte	.LASF3
 1200 0048 03       		.uleb128 0x3
 1201 0049 01       		.byte	0x1
 1202 004a 08       		.byte	0x8
 1203 004b 99010000 		.4byte	.LASF4
 1204 004f 03       		.uleb128 0x3
 1205 0050 02       		.byte	0x2
 1206 0051 05       		.byte	0x5
 1207 0052 E7020000 		.4byte	.LASF5
 1208 0056 03       		.uleb128 0x3
 1209 0057 02       		.byte	0x2
 1210 0058 07       		.byte	0x7
 1211 0059 25010000 		.4byte	.LASF6
 1212 005d 03       		.uleb128 0x3
 1213 005e 04       		.byte	0x4
 1214 005f 05       		.byte	0x5
 1215 0060 23030000 		.4byte	.LASF7
 1216 0064 03       		.uleb128 0x3
 1217 0065 04       		.byte	0x4
 1218 0066 07       		.byte	0x7
 1219 0067 BE010000 		.4byte	.LASF8
 1220 006b 03       		.uleb128 0x3
 1221 006c 08       		.byte	0x8
 1222 006d 07       		.byte	0x7
 1223 006e 71020000 		.4byte	.LASF9
 1224 0072 03       		.uleb128 0x3
 1225 0073 04       		.byte	0x4
 1226 0074 07       		.byte	0x7
 1227 0075 AD020000 		.4byte	.LASF10
 1228 0079 03       		.uleb128 0x3
 1229 007a 01       		.byte	0x1
 1230 007b 08       		.byte	0x8
 1231 007c 2C030000 		.4byte	.LASF11
 1232 0080 04       		.uleb128 0x4
 1233 0081 D0010000 		.4byte	.LASF12
 1234 0085 02       		.byte	0x2
ARM GAS  C:\Users\shkoli\AppData\Local\Temp\cc5ETAli.s 			page 35


 1235 0086 9201     		.2byte	0x192
 1236 0088 48000000 		.4byte	0x48
 1237 008c 04       		.uleb128 0x4
 1238 008d 08020000 		.4byte	.LASF13
 1239 0091 02       		.byte	0x2
 1240 0092 9301     		.2byte	0x193
 1241 0094 56000000 		.4byte	0x56
 1242 0098 04       		.uleb128 0x4
 1243 0099 2B020000 		.4byte	.LASF14
 1244 009d 02       		.byte	0x2
 1245 009e 9401     		.2byte	0x194
 1246 00a0 64000000 		.4byte	0x64
 1247 00a4 03       		.uleb128 0x3
 1248 00a5 04       		.byte	0x4
 1249 00a6 04       		.byte	0x4
 1250 00a7 93010000 		.4byte	.LASF15
 1251 00ab 03       		.uleb128 0x3
 1252 00ac 08       		.byte	0x8
 1253 00ad 04       		.byte	0x4
 1254 00ae 01020000 		.4byte	.LASF16
 1255 00b2 04       		.uleb128 0x4
 1256 00b3 A7020000 		.4byte	.LASF17
 1257 00b7 02       		.byte	0x2
 1258 00b8 A301     		.2byte	0x1a3
 1259 00ba 79000000 		.4byte	0x79
 1260 00be 04       		.uleb128 0x4
 1261 00bf 8F020000 		.4byte	.LASF18
 1262 00c3 02       		.byte	0x2
 1263 00c4 3C02     		.2byte	0x23c
 1264 00c6 CA000000 		.4byte	0xca
 1265 00ca 05       		.uleb128 0x5
 1266 00cb 80000000 		.4byte	0x80
 1267 00cf 06       		.uleb128 0x6
 1268 00d0 F1020000 		.4byte	.LASF19
 1269 00d4 01       		.byte	0x1
 1270 00d5 37       		.byte	0x37
 1271 00d6 00000000 		.4byte	.LFB0
 1272 00da 78000000 		.4byte	.LFE0-.LFB0
 1273 00de 01       		.uleb128 0x1
 1274 00df 9C       		.byte	0x9c
 1275 00e0 06       		.uleb128 0x6
 1276 00e1 63030000 		.4byte	.LASF20
 1277 00e5 01       		.byte	0x1
 1278 00e6 68       		.byte	0x68
 1279 00e7 00000000 		.4byte	.LFB1
 1280 00eb 18000000 		.4byte	.LFE1-.LFB1
 1281 00ef 01       		.uleb128 0x1
 1282 00f0 9C       		.byte	0x9c
 1283 00f1 06       		.uleb128 0x6
 1284 00f2 32020000 		.4byte	.LASF21
 1285 00f6 01       		.byte	0x1
 1286 00f7 89       		.byte	0x89
 1287 00f8 00000000 		.4byte	.LFB2
 1288 00fc 24000000 		.4byte	.LFE2-.LFB2
 1289 0100 01       		.uleb128 0x1
 1290 0101 9C       		.byte	0x9c
 1291 0102 06       		.uleb128 0x6
ARM GAS  C:\Users\shkoli\AppData\Local\Temp\cc5ETAli.s 			page 36


 1292 0103 4A010000 		.4byte	.LASF22
 1293 0107 01       		.byte	0x1
 1294 0108 A8       		.byte	0xa8
 1295 0109 00000000 		.4byte	.LFB3
 1296 010d 18000000 		.4byte	.LFE3-.LFB3
 1297 0111 01       		.uleb128 0x1
 1298 0112 9C       		.byte	0x9c
 1299 0113 07       		.uleb128 0x7
 1300 0114 94020000 		.4byte	.LASF24
 1301 0118 01       		.byte	0x1
 1302 0119 C4       		.byte	0xc4
 1303 011a 00000000 		.4byte	.LFB4
 1304 011e 6E000000 		.4byte	.LFE4-.LFB4
 1305 0122 01       		.uleb128 0x1
 1306 0123 9C       		.byte	0x9c
 1307 0124 45010000 		.4byte	0x145
 1308 0128 08       		.uleb128 0x8
 1309 0129 726F7700 		.ascii	"row\000"
 1310 012d 01       		.byte	0x1
 1311 012e C4       		.byte	0xc4
 1312 012f 80000000 		.4byte	0x80
 1313 0133 02       		.uleb128 0x2
 1314 0134 91       		.byte	0x91
 1315 0135 77       		.sleb128 -9
 1316 0136 09       		.uleb128 0x9
 1317 0137 09010000 		.4byte	.LASF23
 1318 013b 01       		.byte	0x1
 1319 013c C4       		.byte	0xc4
 1320 013d 80000000 		.4byte	0x80
 1321 0141 02       		.uleb128 0x2
 1322 0142 91       		.byte	0x91
 1323 0143 76       		.sleb128 -10
 1324 0144 00       		.byte	0
 1325 0145 07       		.uleb128 0x7
 1326 0146 00000000 		.4byte	.LASF25
 1327 014a 01       		.byte	0x1
 1328 014b E9       		.byte	0xe9
 1329 014c 00000000 		.4byte	.LFB5
 1330 0150 3A000000 		.4byte	.LFE5-.LFB5
 1331 0154 01       		.uleb128 0x1
 1332 0155 9C       		.byte	0x9c
 1333 0156 85010000 		.4byte	0x185
 1334 015a 09       		.uleb128 0x9
 1335 015b 61010000 		.4byte	.LASF26
 1336 015f 01       		.byte	0x1
 1337 0160 E9       		.byte	0xe9
 1338 0161 85010000 		.4byte	0x185
 1339 0165 02       		.uleb128 0x2
 1340 0166 91       		.byte	0x91
 1341 0167 6C       		.sleb128 -20
 1342 0168 0A       		.uleb128 0xa
 1343 0169 59010000 		.4byte	.LASF27
 1344 016d 01       		.byte	0x1
 1345 016e EB       		.byte	0xeb
 1346 016f 80000000 		.4byte	0x80
 1347 0173 02       		.uleb128 0x2
 1348 0174 91       		.byte	0x91
ARM GAS  C:\Users\shkoli\AppData\Local\Temp\cc5ETAli.s 			page 37


 1349 0175 77       		.sleb128 -9
 1350 0176 0A       		.uleb128 0xa
 1351 0177 F1000000 		.4byte	.LASF28
 1352 017b 01       		.byte	0x1
 1353 017c EC       		.byte	0xec
 1354 017d B2000000 		.4byte	0xb2
 1355 0181 02       		.uleb128 0x2
 1356 0182 91       		.byte	0x91
 1357 0183 76       		.sleb128 -10
 1358 0184 00       		.byte	0
 1359 0185 0B       		.uleb128 0xb
 1360 0186 04       		.byte	0x4
 1361 0187 8B010000 		.4byte	0x18b
 1362 018b 0C       		.uleb128 0xc
 1363 018c B2000000 		.4byte	0xb2
 1364 0190 0D       		.uleb128 0xd
 1365 0191 81010000 		.4byte	.LASF29
 1366 0195 01       		.byte	0x1
 1367 0196 0801     		.2byte	0x108
 1368 0198 00000000 		.4byte	.LFB6
 1369 019c 1A000000 		.4byte	.LFE6-.LFB6
 1370 01a0 01       		.uleb128 0x1
 1371 01a1 9C       		.byte	0x9c
 1372 01a2 B6010000 		.4byte	0x1b6
 1373 01a6 0E       		.uleb128 0xe
 1374 01a7 F9000000 		.4byte	.LASF30
 1375 01ab 01       		.byte	0x1
 1376 01ac 0801     		.2byte	0x108
 1377 01ae B2000000 		.4byte	0xb2
 1378 01b2 02       		.uleb128 0x2
 1379 01b3 91       		.byte	0x91
 1380 01b4 77       		.sleb128 -9
 1381 01b5 00       		.byte	0
 1382 01b6 0D       		.uleb128 0xd
 1383 01b7 5D020000 		.4byte	.LASF31
 1384 01bb 01       		.byte	0x1
 1385 01bc 1C01     		.2byte	0x11c
 1386 01be 00000000 		.4byte	.LFB7
 1387 01c2 34000000 		.4byte	.LFE7-.LFB7
 1388 01c6 01       		.uleb128 0x1
 1389 01c7 9C       		.byte	0x9c
 1390 01c8 EB010000 		.4byte	0x1eb
 1391 01cc 0E       		.uleb128 0xe
 1392 01cd 5D030000 		.4byte	.LASF32
 1393 01d1 01       		.byte	0x1
 1394 01d2 1C01     		.2byte	0x11c
 1395 01d4 80000000 		.4byte	0x80
 1396 01d8 02       		.uleb128 0x2
 1397 01d9 91       		.byte	0x91
 1398 01da 6F       		.sleb128 -17
 1399 01db 0F       		.uleb128 0xf
 1400 01dc 1C000000 		.4byte	.LASF33
 1401 01e0 01       		.byte	0x1
 1402 01e1 1E01     		.2byte	0x11e
 1403 01e3 80000000 		.4byte	0x80
 1404 01e7 02       		.uleb128 0x2
 1405 01e8 91       		.byte	0x91
ARM GAS  C:\Users\shkoli\AppData\Local\Temp\cc5ETAli.s 			page 38


 1406 01e9 77       		.sleb128 -9
 1407 01ea 00       		.byte	0
 1408 01eb 0D       		.uleb128 0xd
 1409 01ec A7010000 		.4byte	.LASF34
 1410 01f0 01       		.byte	0x1
 1411 01f1 3A01     		.2byte	0x13a
 1412 01f3 00000000 		.4byte	.LFB8
 1413 01f7 34000000 		.4byte	.LFE8-.LFB8
 1414 01fb 01       		.uleb128 0x1
 1415 01fc 9C       		.byte	0x9c
 1416 01fd 20020000 		.4byte	0x220
 1417 0201 0E       		.uleb128 0xe
 1418 0202 8A030000 		.4byte	.LASF35
 1419 0206 01       		.byte	0x1
 1420 0207 3A01     		.2byte	0x13a
 1421 0209 80000000 		.4byte	0x80
 1422 020d 02       		.uleb128 0x2
 1423 020e 91       		.byte	0x91
 1424 020f 6F       		.sleb128 -17
 1425 0210 0F       		.uleb128 0xf
 1426 0211 1C000000 		.4byte	.LASF33
 1427 0215 01       		.byte	0x1
 1428 0216 3C01     		.2byte	0x13c
 1429 0218 80000000 		.4byte	0x80
 1430 021c 02       		.uleb128 0x2
 1431 021d 91       		.byte	0x91
 1432 021e 77       		.sleb128 -9
 1433 021f 00       		.byte	0
 1434 0220 0D       		.uleb128 0xd
 1435 0221 38010000 		.4byte	.LASF36
 1436 0225 01       		.byte	0x1
 1437 0226 5C01     		.2byte	0x15c
 1438 0228 00000000 		.4byte	.LFB9
 1439 022c 78010000 		.4byte	.LFE9-.LFB9
 1440 0230 01       		.uleb128 0x1
 1441 0231 9C       		.byte	0x9c
 1442 0232 55020000 		.4byte	0x255
 1443 0236 0F       		.uleb128 0xf
 1444 0237 03010000 		.4byte	.LASF37
 1445 023b 01       		.byte	0x1
 1446 023c 5E01     		.2byte	0x15e
 1447 023e 80000000 		.4byte	0x80
 1448 0242 02       		.uleb128 0x2
 1449 0243 91       		.byte	0x91
 1450 0244 73       		.sleb128 -13
 1451 0245 0F       		.uleb128 0xf
 1452 0246 C4020000 		.4byte	.LASF38
 1453 024a 01       		.byte	0x1
 1454 024b 5F01     		.2byte	0x15f
 1455 024d 98000000 		.4byte	0x98
 1456 0251 02       		.uleb128 0x2
 1457 0252 91       		.byte	0x91
 1458 0253 74       		.sleb128 -12
 1459 0254 00       		.byte	0
 1460 0255 10       		.uleb128 0x10
 1461 0256 0F020000 		.4byte	.LASF39
 1462 025a 01       		.byte	0x1
ARM GAS  C:\Users\shkoli\AppData\Local\Temp\cc5ETAli.s 			page 39


 1463 025b E601     		.2byte	0x1e6
 1464 025d 00000000 		.4byte	.LFB10
 1465 0261 78000000 		.4byte	.LFE10-.LFB10
 1466 0265 01       		.uleb128 0x1
 1467 0266 9C       		.byte	0x9c
 1468 0267 7B020000 		.4byte	0x27b
 1469 026b 0E       		.uleb128 0xe
 1470 026c 1C000000 		.4byte	.LASF33
 1471 0270 01       		.byte	0x1
 1472 0271 E601     		.2byte	0x1e6
 1473 0273 80000000 		.4byte	0x80
 1474 0277 02       		.uleb128 0x2
 1475 0278 91       		.byte	0x91
 1476 0279 77       		.sleb128 -9
 1477 027a 00       		.byte	0
 1478 027b 10       		.uleb128 0x10
 1479 027c 10010000 		.4byte	.LASF40
 1480 0280 01       		.byte	0x1
 1481 0281 1002     		.2byte	0x210
 1482 0283 00000000 		.4byte	.LFB11
 1483 0287 64000000 		.4byte	.LFE11-.LFB11
 1484 028b 01       		.uleb128 0x1
 1485 028c 9C       		.byte	0x9c
 1486 028d A1020000 		.4byte	0x2a1
 1487 0291 0E       		.uleb128 0xe
 1488 0292 1C000000 		.4byte	.LASF33
 1489 0296 01       		.byte	0x1
 1490 0297 1002     		.2byte	0x210
 1491 0299 80000000 		.4byte	0x80
 1492 029d 02       		.uleb128 0x2
 1493 029e 91       		.byte	0x91
 1494 029f 77       		.sleb128 -9
 1495 02a0 00       		.byte	0
 1496 02a1 0D       		.uleb128 0xd
 1497 02a2 3D030000 		.4byte	.LASF41
 1498 02a6 01       		.byte	0x1
 1499 02a7 3802     		.2byte	0x238
 1500 02a9 00000000 		.4byte	.LFB12
 1501 02ad 38000000 		.4byte	.LFE12-.LFB12
 1502 02b1 01       		.uleb128 0x1
 1503 02b2 9C       		.byte	0x9c
 1504 02b3 D9020000 		.4byte	0x2d9
 1505 02b7 0E       		.uleb128 0xe
 1506 02b8 03010000 		.4byte	.LASF37
 1507 02bc 01       		.byte	0x1
 1508 02bd 3802     		.2byte	0x238
 1509 02bf 80000000 		.4byte	0x80
 1510 02c3 02       		.uleb128 0x2
 1511 02c4 91       		.byte	0x91
 1512 02c5 77       		.sleb128 -9
 1513 02c6 0F       		.uleb128 0xf
 1514 02c7 42020000 		.4byte	.LASF42
 1515 02cb 01       		.byte	0x1
 1516 02cc 3A02     		.2byte	0x23a
 1517 02ce E9020000 		.4byte	0x2e9
 1518 02d2 05       		.uleb128 0x5
 1519 02d3 03       		.byte	0x3
ARM GAS  C:\Users\shkoli\AppData\Local\Temp\cc5ETAli.s 			page 40


 1520 02d4 00000000 		.4byte	CharLCD_1_hex.5030
 1521 02d8 00       		.byte	0
 1522 02d9 11       		.uleb128 0x11
 1523 02da 8B010000 		.4byte	0x18b
 1524 02de E9020000 		.4byte	0x2e9
 1525 02e2 12       		.uleb128 0x12
 1526 02e3 72000000 		.4byte	0x72
 1527 02e7 0F       		.byte	0xf
 1528 02e8 00       		.byte	0
 1529 02e9 0C       		.uleb128 0xc
 1530 02ea D9020000 		.4byte	0x2d9
 1531 02ee 0D       		.uleb128 0xd
 1532 02ef 90030000 		.4byte	.LASF43
 1533 02f3 01       		.byte	0x1
 1534 02f4 4F02     		.2byte	0x24f
 1535 02f6 00000000 		.4byte	.LFB13
 1536 02fa 2A000000 		.4byte	.LFE13-.LFB13
 1537 02fe 01       		.uleb128 0x1
 1538 02ff 9C       		.byte	0x9c
 1539 0300 14030000 		.4byte	0x314
 1540 0304 0E       		.uleb128 0xe
 1541 0305 03010000 		.4byte	.LASF37
 1542 0309 01       		.byte	0x1
 1543 030a 4F02     		.2byte	0x24f
 1544 030c 8C000000 		.4byte	0x8c
 1545 0310 02       		.uleb128 0x2
 1546 0311 91       		.byte	0x91
 1547 0312 76       		.sleb128 -10
 1548 0313 00       		.byte	0
 1549 0314 0D       		.uleb128 0xd
 1550 0315 D6010000 		.4byte	.LASF44
 1551 0319 01       		.byte	0x1
 1552 031a 6402     		.2byte	0x264
 1553 031c 00000000 		.4byte	.LFB14
 1554 0320 32000000 		.4byte	.LFE14-.LFB14
 1555 0324 01       		.uleb128 0x1
 1556 0325 9C       		.byte	0x9c
 1557 0326 49030000 		.4byte	0x349
 1558 032a 0E       		.uleb128 0xe
 1559 032b 03010000 		.4byte	.LASF37
 1560 032f 01       		.byte	0x1
 1561 0330 6402     		.2byte	0x264
 1562 0332 98000000 		.4byte	0x98
 1563 0336 02       		.uleb128 0x2
 1564 0337 91       		.byte	0x91
 1565 0338 6C       		.sleb128 -20
 1566 0339 0F       		.uleb128 0xf
 1567 033a 16000000 		.4byte	.LASF45
 1568 033e 01       		.byte	0x1
 1569 033f 6602     		.2byte	0x266
 1570 0341 80000000 		.4byte	0x80
 1571 0345 02       		.uleb128 0x2
 1572 0346 91       		.byte	0x91
 1573 0347 77       		.sleb128 -9
 1574 0348 00       		.byte	0
 1575 0349 0D       		.uleb128 0xd
 1576 034a 68010000 		.4byte	.LASF46
ARM GAS  C:\Users\shkoli\AppData\Local\Temp\cc5ETAli.s 			page 41


 1577 034e 01       		.byte	0x1
 1578 034f 9602     		.2byte	0x296
 1579 0351 00000000 		.4byte	.LFB15
 1580 0355 A4000000 		.4byte	.LFE15-.LFB15
 1581 0359 01       		.uleb128 0x1
 1582 035a 9C       		.byte	0x9c
 1583 035b 9C030000 		.4byte	0x39c
 1584 035f 0E       		.uleb128 0xe
 1585 0360 03010000 		.4byte	.LASF37
 1586 0364 01       		.byte	0x1
 1587 0365 9602     		.2byte	0x296
 1588 0367 98000000 		.4byte	0x98
 1589 036b 02       		.uleb128 0x2
 1590 036c 91       		.byte	0x91
 1591 036d 64       		.sleb128 -28
 1592 036e 0F       		.uleb128 0xf
 1593 036f DE020000 		.4byte	.LASF47
 1594 0373 01       		.byte	0x1
 1595 0374 9802     		.2byte	0x298
 1596 0376 80000000 		.4byte	0x80
 1597 037a 02       		.uleb128 0x2
 1598 037b 91       		.byte	0x91
 1599 037c 76       		.sleb128 -10
 1600 037d 0F       		.uleb128 0xf
 1601 037e 88020000 		.4byte	.LASF48
 1602 0382 01       		.byte	0x1
 1603 0383 9902     		.2byte	0x299
 1604 0385 9C030000 		.4byte	0x39c
 1605 0389 02       		.uleb128 0x2
 1606 038a 91       		.byte	0x91
 1607 038b 68       		.sleb128 -24
 1608 038c 0F       		.uleb128 0xf
 1609 038d 22020000 		.4byte	.LASF49
 1610 0391 01       		.byte	0x1
 1611 0392 9A02     		.2byte	0x29a
 1612 0394 80000000 		.4byte	0x80
 1613 0398 02       		.uleb128 0x2
 1614 0399 91       		.byte	0x91
 1615 039a 77       		.sleb128 -9
 1616 039b 00       		.byte	0
 1617 039c 11       		.uleb128 0x11
 1618 039d B2000000 		.4byte	0xb2
 1619 03a1 AC030000 		.4byte	0x3ac
 1620 03a5 12       		.uleb128 0x12
 1621 03a6 72000000 		.4byte	0x72
 1622 03aa 0A       		.byte	0xa
 1623 03ab 00       		.byte	0
 1624 03ac 13       		.uleb128 0x13
 1625 03ad CC020000 		.4byte	.LASF50
 1626 03b1 01       		.byte	0x1
 1627 03b2 1D       		.byte	0x1d
 1628 03b3 80000000 		.4byte	0x80
 1629 03b7 05       		.uleb128 0x5
 1630 03b8 03       		.byte	0x3
 1631 03b9 00000000 		.4byte	CharLCD_1_initVar
 1632 03bd 13       		.uleb128 0x13
 1633 03be 74030000 		.4byte	.LASF51
ARM GAS  C:\Users\shkoli\AppData\Local\Temp\cc5ETAli.s 			page 42


 1634 03c2 01       		.byte	0x1
 1635 03c3 1B       		.byte	0x1b
 1636 03c4 80000000 		.4byte	0x80
 1637 03c8 05       		.uleb128 0x5
 1638 03c9 03       		.byte	0x3
 1639 03ca 00000000 		.4byte	CharLCD_1_enableState
 1640 03ce 11       		.uleb128 0x11
 1641 03cf DE030000 		.4byte	0x3de
 1642 03d3 DE030000 		.4byte	0x3de
 1643 03d7 12       		.uleb128 0x12
 1644 03d8 72000000 		.4byte	0x72
 1645 03dc 3F       		.byte	0x3f
 1646 03dd 00       		.byte	0
 1647 03de 0C       		.uleb128 0xc
 1648 03df 80000000 		.4byte	0x80
 1649 03e3 14       		.uleb128 0x14
 1650 03e4 EB010000 		.4byte	.LASF52
 1651 03e8 03       		.byte	0x3
 1652 03e9 77       		.byte	0x77
 1653 03ea EE030000 		.4byte	0x3ee
 1654 03ee 0C       		.uleb128 0xc
 1655 03ef CE030000 		.4byte	0x3ce
 1656 03f3 00       		.byte	0
 1657              		.section	.debug_abbrev,"",%progbits
 1658              	.Ldebug_abbrev0:
 1659 0000 01       		.uleb128 0x1
 1660 0001 11       		.uleb128 0x11
 1661 0002 01       		.byte	0x1
 1662 0003 25       		.uleb128 0x25
 1663 0004 0E       		.uleb128 0xe
 1664 0005 13       		.uleb128 0x13
 1665 0006 0B       		.uleb128 0xb
 1666 0007 03       		.uleb128 0x3
 1667 0008 0E       		.uleb128 0xe
 1668 0009 1B       		.uleb128 0x1b
 1669 000a 0E       		.uleb128 0xe
 1670 000b 55       		.uleb128 0x55
 1671 000c 17       		.uleb128 0x17
 1672 000d 11       		.uleb128 0x11
 1673 000e 01       		.uleb128 0x1
 1674 000f 10       		.uleb128 0x10
 1675 0010 17       		.uleb128 0x17
 1676 0011 00       		.byte	0
 1677 0012 00       		.byte	0
 1678 0013 02       		.uleb128 0x2
 1679 0014 24       		.uleb128 0x24
 1680 0015 00       		.byte	0
 1681 0016 0B       		.uleb128 0xb
 1682 0017 0B       		.uleb128 0xb
 1683 0018 3E       		.uleb128 0x3e
 1684 0019 0B       		.uleb128 0xb
 1685 001a 03       		.uleb128 0x3
 1686 001b 08       		.uleb128 0x8
 1687 001c 00       		.byte	0
 1688 001d 00       		.byte	0
 1689 001e 03       		.uleb128 0x3
 1690 001f 24       		.uleb128 0x24
ARM GAS  C:\Users\shkoli\AppData\Local\Temp\cc5ETAli.s 			page 43


 1691 0020 00       		.byte	0
 1692 0021 0B       		.uleb128 0xb
 1693 0022 0B       		.uleb128 0xb
 1694 0023 3E       		.uleb128 0x3e
 1695 0024 0B       		.uleb128 0xb
 1696 0025 03       		.uleb128 0x3
 1697 0026 0E       		.uleb128 0xe
 1698 0027 00       		.byte	0
 1699 0028 00       		.byte	0
 1700 0029 04       		.uleb128 0x4
 1701 002a 16       		.uleb128 0x16
 1702 002b 00       		.byte	0
 1703 002c 03       		.uleb128 0x3
 1704 002d 0E       		.uleb128 0xe
 1705 002e 3A       		.uleb128 0x3a
 1706 002f 0B       		.uleb128 0xb
 1707 0030 3B       		.uleb128 0x3b
 1708 0031 05       		.uleb128 0x5
 1709 0032 49       		.uleb128 0x49
 1710 0033 13       		.uleb128 0x13
 1711 0034 00       		.byte	0
 1712 0035 00       		.byte	0
 1713 0036 05       		.uleb128 0x5
 1714 0037 35       		.uleb128 0x35
 1715 0038 00       		.byte	0
 1716 0039 49       		.uleb128 0x49
 1717 003a 13       		.uleb128 0x13
 1718 003b 00       		.byte	0
 1719 003c 00       		.byte	0
 1720 003d 06       		.uleb128 0x6
 1721 003e 2E       		.uleb128 0x2e
 1722 003f 00       		.byte	0
 1723 0040 3F       		.uleb128 0x3f
 1724 0041 19       		.uleb128 0x19
 1725 0042 03       		.uleb128 0x3
 1726 0043 0E       		.uleb128 0xe
 1727 0044 3A       		.uleb128 0x3a
 1728 0045 0B       		.uleb128 0xb
 1729 0046 3B       		.uleb128 0x3b
 1730 0047 0B       		.uleb128 0xb
 1731 0048 27       		.uleb128 0x27
 1732 0049 19       		.uleb128 0x19
 1733 004a 11       		.uleb128 0x11
 1734 004b 01       		.uleb128 0x1
 1735 004c 12       		.uleb128 0x12
 1736 004d 06       		.uleb128 0x6
 1737 004e 40       		.uleb128 0x40
 1738 004f 18       		.uleb128 0x18
 1739 0050 9642     		.uleb128 0x2116
 1740 0052 19       		.uleb128 0x19
 1741 0053 00       		.byte	0
 1742 0054 00       		.byte	0
 1743 0055 07       		.uleb128 0x7
 1744 0056 2E       		.uleb128 0x2e
 1745 0057 01       		.byte	0x1
 1746 0058 3F       		.uleb128 0x3f
 1747 0059 19       		.uleb128 0x19
ARM GAS  C:\Users\shkoli\AppData\Local\Temp\cc5ETAli.s 			page 44


 1748 005a 03       		.uleb128 0x3
 1749 005b 0E       		.uleb128 0xe
 1750 005c 3A       		.uleb128 0x3a
 1751 005d 0B       		.uleb128 0xb
 1752 005e 3B       		.uleb128 0x3b
 1753 005f 0B       		.uleb128 0xb
 1754 0060 27       		.uleb128 0x27
 1755 0061 19       		.uleb128 0x19
 1756 0062 11       		.uleb128 0x11
 1757 0063 01       		.uleb128 0x1
 1758 0064 12       		.uleb128 0x12
 1759 0065 06       		.uleb128 0x6
 1760 0066 40       		.uleb128 0x40
 1761 0067 18       		.uleb128 0x18
 1762 0068 9642     		.uleb128 0x2116
 1763 006a 19       		.uleb128 0x19
 1764 006b 01       		.uleb128 0x1
 1765 006c 13       		.uleb128 0x13
 1766 006d 00       		.byte	0
 1767 006e 00       		.byte	0
 1768 006f 08       		.uleb128 0x8
 1769 0070 05       		.uleb128 0x5
 1770 0071 00       		.byte	0
 1771 0072 03       		.uleb128 0x3
 1772 0073 08       		.uleb128 0x8
 1773 0074 3A       		.uleb128 0x3a
 1774 0075 0B       		.uleb128 0xb
 1775 0076 3B       		.uleb128 0x3b
 1776 0077 0B       		.uleb128 0xb
 1777 0078 49       		.uleb128 0x49
 1778 0079 13       		.uleb128 0x13
 1779 007a 02       		.uleb128 0x2
 1780 007b 18       		.uleb128 0x18
 1781 007c 00       		.byte	0
 1782 007d 00       		.byte	0
 1783 007e 09       		.uleb128 0x9
 1784 007f 05       		.uleb128 0x5
 1785 0080 00       		.byte	0
 1786 0081 03       		.uleb128 0x3
 1787 0082 0E       		.uleb128 0xe
 1788 0083 3A       		.uleb128 0x3a
 1789 0084 0B       		.uleb128 0xb
 1790 0085 3B       		.uleb128 0x3b
 1791 0086 0B       		.uleb128 0xb
 1792 0087 49       		.uleb128 0x49
 1793 0088 13       		.uleb128 0x13
 1794 0089 02       		.uleb128 0x2
 1795 008a 18       		.uleb128 0x18
 1796 008b 00       		.byte	0
 1797 008c 00       		.byte	0
 1798 008d 0A       		.uleb128 0xa
 1799 008e 34       		.uleb128 0x34
 1800 008f 00       		.byte	0
 1801 0090 03       		.uleb128 0x3
 1802 0091 0E       		.uleb128 0xe
 1803 0092 3A       		.uleb128 0x3a
 1804 0093 0B       		.uleb128 0xb
ARM GAS  C:\Users\shkoli\AppData\Local\Temp\cc5ETAli.s 			page 45


 1805 0094 3B       		.uleb128 0x3b
 1806 0095 0B       		.uleb128 0xb
 1807 0096 49       		.uleb128 0x49
 1808 0097 13       		.uleb128 0x13
 1809 0098 02       		.uleb128 0x2
 1810 0099 18       		.uleb128 0x18
 1811 009a 00       		.byte	0
 1812 009b 00       		.byte	0
 1813 009c 0B       		.uleb128 0xb
 1814 009d 0F       		.uleb128 0xf
 1815 009e 00       		.byte	0
 1816 009f 0B       		.uleb128 0xb
 1817 00a0 0B       		.uleb128 0xb
 1818 00a1 49       		.uleb128 0x49
 1819 00a2 13       		.uleb128 0x13
 1820 00a3 00       		.byte	0
 1821 00a4 00       		.byte	0
 1822 00a5 0C       		.uleb128 0xc
 1823 00a6 26       		.uleb128 0x26
 1824 00a7 00       		.byte	0
 1825 00a8 49       		.uleb128 0x49
 1826 00a9 13       		.uleb128 0x13
 1827 00aa 00       		.byte	0
 1828 00ab 00       		.byte	0
 1829 00ac 0D       		.uleb128 0xd
 1830 00ad 2E       		.uleb128 0x2e
 1831 00ae 01       		.byte	0x1
 1832 00af 3F       		.uleb128 0x3f
 1833 00b0 19       		.uleb128 0x19
 1834 00b1 03       		.uleb128 0x3
 1835 00b2 0E       		.uleb128 0xe
 1836 00b3 3A       		.uleb128 0x3a
 1837 00b4 0B       		.uleb128 0xb
 1838 00b5 3B       		.uleb128 0x3b
 1839 00b6 05       		.uleb128 0x5
 1840 00b7 27       		.uleb128 0x27
 1841 00b8 19       		.uleb128 0x19
 1842 00b9 11       		.uleb128 0x11
 1843 00ba 01       		.uleb128 0x1
 1844 00bb 12       		.uleb128 0x12
 1845 00bc 06       		.uleb128 0x6
 1846 00bd 40       		.uleb128 0x40
 1847 00be 18       		.uleb128 0x18
 1848 00bf 9642     		.uleb128 0x2116
 1849 00c1 19       		.uleb128 0x19
 1850 00c2 01       		.uleb128 0x1
 1851 00c3 13       		.uleb128 0x13
 1852 00c4 00       		.byte	0
 1853 00c5 00       		.byte	0
 1854 00c6 0E       		.uleb128 0xe
 1855 00c7 05       		.uleb128 0x5
 1856 00c8 00       		.byte	0
 1857 00c9 03       		.uleb128 0x3
 1858 00ca 0E       		.uleb128 0xe
 1859 00cb 3A       		.uleb128 0x3a
 1860 00cc 0B       		.uleb128 0xb
 1861 00cd 3B       		.uleb128 0x3b
ARM GAS  C:\Users\shkoli\AppData\Local\Temp\cc5ETAli.s 			page 46


 1862 00ce 05       		.uleb128 0x5
 1863 00cf 49       		.uleb128 0x49
 1864 00d0 13       		.uleb128 0x13
 1865 00d1 02       		.uleb128 0x2
 1866 00d2 18       		.uleb128 0x18
 1867 00d3 00       		.byte	0
 1868 00d4 00       		.byte	0
 1869 00d5 0F       		.uleb128 0xf
 1870 00d6 34       		.uleb128 0x34
 1871 00d7 00       		.byte	0
 1872 00d8 03       		.uleb128 0x3
 1873 00d9 0E       		.uleb128 0xe
 1874 00da 3A       		.uleb128 0x3a
 1875 00db 0B       		.uleb128 0xb
 1876 00dc 3B       		.uleb128 0x3b
 1877 00dd 05       		.uleb128 0x5
 1878 00de 49       		.uleb128 0x49
 1879 00df 13       		.uleb128 0x13
 1880 00e0 02       		.uleb128 0x2
 1881 00e1 18       		.uleb128 0x18
 1882 00e2 00       		.byte	0
 1883 00e3 00       		.byte	0
 1884 00e4 10       		.uleb128 0x10
 1885 00e5 2E       		.uleb128 0x2e
 1886 00e6 01       		.byte	0x1
 1887 00e7 03       		.uleb128 0x3
 1888 00e8 0E       		.uleb128 0xe
 1889 00e9 3A       		.uleb128 0x3a
 1890 00ea 0B       		.uleb128 0xb
 1891 00eb 3B       		.uleb128 0x3b
 1892 00ec 05       		.uleb128 0x5
 1893 00ed 27       		.uleb128 0x27
 1894 00ee 19       		.uleb128 0x19
 1895 00ef 11       		.uleb128 0x11
 1896 00f0 01       		.uleb128 0x1
 1897 00f1 12       		.uleb128 0x12
 1898 00f2 06       		.uleb128 0x6
 1899 00f3 40       		.uleb128 0x40
 1900 00f4 18       		.uleb128 0x18
 1901 00f5 9642     		.uleb128 0x2116
 1902 00f7 19       		.uleb128 0x19
 1903 00f8 01       		.uleb128 0x1
 1904 00f9 13       		.uleb128 0x13
 1905 00fa 00       		.byte	0
 1906 00fb 00       		.byte	0
 1907 00fc 11       		.uleb128 0x11
 1908 00fd 01       		.uleb128 0x1
 1909 00fe 01       		.byte	0x1
 1910 00ff 49       		.uleb128 0x49
 1911 0100 13       		.uleb128 0x13
 1912 0101 01       		.uleb128 0x1
 1913 0102 13       		.uleb128 0x13
 1914 0103 00       		.byte	0
 1915 0104 00       		.byte	0
 1916 0105 12       		.uleb128 0x12
 1917 0106 21       		.uleb128 0x21
 1918 0107 00       		.byte	0
ARM GAS  C:\Users\shkoli\AppData\Local\Temp\cc5ETAli.s 			page 47


 1919 0108 49       		.uleb128 0x49
 1920 0109 13       		.uleb128 0x13
 1921 010a 2F       		.uleb128 0x2f
 1922 010b 0B       		.uleb128 0xb
 1923 010c 00       		.byte	0
 1924 010d 00       		.byte	0
 1925 010e 13       		.uleb128 0x13
 1926 010f 34       		.uleb128 0x34
 1927 0110 00       		.byte	0
 1928 0111 03       		.uleb128 0x3
 1929 0112 0E       		.uleb128 0xe
 1930 0113 3A       		.uleb128 0x3a
 1931 0114 0B       		.uleb128 0xb
 1932 0115 3B       		.uleb128 0x3b
 1933 0116 0B       		.uleb128 0xb
 1934 0117 49       		.uleb128 0x49
 1935 0118 13       		.uleb128 0x13
 1936 0119 3F       		.uleb128 0x3f
 1937 011a 19       		.uleb128 0x19
 1938 011b 02       		.uleb128 0x2
 1939 011c 18       		.uleb128 0x18
 1940 011d 00       		.byte	0
 1941 011e 00       		.byte	0
 1942 011f 14       		.uleb128 0x14
 1943 0120 34       		.uleb128 0x34
 1944 0121 00       		.byte	0
 1945 0122 03       		.uleb128 0x3
 1946 0123 0E       		.uleb128 0xe
 1947 0124 3A       		.uleb128 0x3a
 1948 0125 0B       		.uleb128 0xb
 1949 0126 3B       		.uleb128 0x3b
 1950 0127 0B       		.uleb128 0xb
 1951 0128 49       		.uleb128 0x49
 1952 0129 13       		.uleb128 0x13
 1953 012a 3F       		.uleb128 0x3f
 1954 012b 19       		.uleb128 0x19
 1955 012c 3C       		.uleb128 0x3c
 1956 012d 19       		.uleb128 0x19
 1957 012e 00       		.byte	0
 1958 012f 00       		.byte	0
 1959 0130 00       		.byte	0
 1960              		.section	.debug_aranges,"",%progbits
 1961 0000 94000000 		.4byte	0x94
 1962 0004 0200     		.2byte	0x2
 1963 0006 00000000 		.4byte	.Ldebug_info0
 1964 000a 04       		.byte	0x4
 1965 000b 00       		.byte	0
 1966 000c 0000     		.2byte	0
 1967 000e 0000     		.2byte	0
 1968 0010 00000000 		.4byte	.LFB0
 1969 0014 78000000 		.4byte	.LFE0-.LFB0
 1970 0018 00000000 		.4byte	.LFB1
 1971 001c 18000000 		.4byte	.LFE1-.LFB1
 1972 0020 00000000 		.4byte	.LFB2
 1973 0024 24000000 		.4byte	.LFE2-.LFB2
 1974 0028 00000000 		.4byte	.LFB3
 1975 002c 18000000 		.4byte	.LFE3-.LFB3
ARM GAS  C:\Users\shkoli\AppData\Local\Temp\cc5ETAli.s 			page 48


 1976 0030 00000000 		.4byte	.LFB4
 1977 0034 6E000000 		.4byte	.LFE4-.LFB4
 1978 0038 00000000 		.4byte	.LFB5
 1979 003c 3A000000 		.4byte	.LFE5-.LFB5
 1980 0040 00000000 		.4byte	.LFB6
 1981 0044 1A000000 		.4byte	.LFE6-.LFB6
 1982 0048 00000000 		.4byte	.LFB7
 1983 004c 34000000 		.4byte	.LFE7-.LFB7
 1984 0050 00000000 		.4byte	.LFB8
 1985 0054 34000000 		.4byte	.LFE8-.LFB8
 1986 0058 00000000 		.4byte	.LFB9
 1987 005c 78010000 		.4byte	.LFE9-.LFB9
 1988 0060 00000000 		.4byte	.LFB10
 1989 0064 78000000 		.4byte	.LFE10-.LFB10
 1990 0068 00000000 		.4byte	.LFB11
 1991 006c 64000000 		.4byte	.LFE11-.LFB11
 1992 0070 00000000 		.4byte	.LFB12
 1993 0074 38000000 		.4byte	.LFE12-.LFB12
 1994 0078 00000000 		.4byte	.LFB13
 1995 007c 2A000000 		.4byte	.LFE13-.LFB13
 1996 0080 00000000 		.4byte	.LFB14
 1997 0084 32000000 		.4byte	.LFE14-.LFB14
 1998 0088 00000000 		.4byte	.LFB15
 1999 008c A4000000 		.4byte	.LFE15-.LFB15
 2000 0090 00000000 		.4byte	0
 2001 0094 00000000 		.4byte	0
 2002              		.section	.debug_ranges,"",%progbits
 2003              	.Ldebug_ranges0:
 2004 0000 00000000 		.4byte	.LFB0
 2005 0004 78000000 		.4byte	.LFE0
 2006 0008 00000000 		.4byte	.LFB1
 2007 000c 18000000 		.4byte	.LFE1
 2008 0010 00000000 		.4byte	.LFB2
 2009 0014 24000000 		.4byte	.LFE2
 2010 0018 00000000 		.4byte	.LFB3
 2011 001c 18000000 		.4byte	.LFE3
 2012 0020 00000000 		.4byte	.LFB4
 2013 0024 6E000000 		.4byte	.LFE4
 2014 0028 00000000 		.4byte	.LFB5
 2015 002c 3A000000 		.4byte	.LFE5
 2016 0030 00000000 		.4byte	.LFB6
 2017 0034 1A000000 		.4byte	.LFE6
 2018 0038 00000000 		.4byte	.LFB7
 2019 003c 34000000 		.4byte	.LFE7
 2020 0040 00000000 		.4byte	.LFB8
 2021 0044 34000000 		.4byte	.LFE8
 2022 0048 00000000 		.4byte	.LFB9
 2023 004c 78010000 		.4byte	.LFE9
 2024 0050 00000000 		.4byte	.LFB10
 2025 0054 78000000 		.4byte	.LFE10
 2026 0058 00000000 		.4byte	.LFB11
 2027 005c 64000000 		.4byte	.LFE11
 2028 0060 00000000 		.4byte	.LFB12
 2029 0064 38000000 		.4byte	.LFE12
 2030 0068 00000000 		.4byte	.LFB13
 2031 006c 2A000000 		.4byte	.LFE13
 2032 0070 00000000 		.4byte	.LFB14
ARM GAS  C:\Users\shkoli\AppData\Local\Temp\cc5ETAli.s 			page 49


 2033 0074 32000000 		.4byte	.LFE14
 2034 0078 00000000 		.4byte	.LFB15
 2035 007c A4000000 		.4byte	.LFE15
 2036 0080 00000000 		.4byte	0
 2037 0084 00000000 		.4byte	0
 2038              		.section	.debug_line,"",%progbits
 2039              	.Ldebug_line0:
 2040 0000 F3010000 		.section	.debug_str,"MS",%progbits,1
 2040      02005500 
 2040      00000201 
 2040      FB0E0D00 
 2040      01010101 
 2041              	.LASF25:
 2042 0000 43686172 		.ascii	"CharLCD_1_PrintString\000"
 2042      4C43445F 
 2042      315F5072 
 2042      696E7453 
 2042      7472696E 
 2043              	.LASF45:
 2044 0016 73686966 		.ascii	"shift\000"
 2044      7400
 2045              	.LASF33:
 2046 001c 6E696262 		.ascii	"nibble\000"
 2046      6C6500
 2047              	.LASF53:
 2048 0023 474E5520 		.ascii	"GNU C11 5.4.1 20160609 (release) [ARM/embedded-5-br"
 2048      43313120 
 2048      352E342E 
 2048      31203230 
 2048      31363036 
 2049 0056 616E6368 		.ascii	"anch revision 237715] -mcpu=cortex-m3 -mthumb -g -O"
 2049      20726576 
 2049      6973696F 
 2049      6E203233 
 2049      37373135 
 2050 0089 30202D66 		.ascii	"0 -ffunction-sections -ffat-lto-objects\000"
 2050      66756E63 
 2050      74696F6E 
 2050      2D736563 
 2050      74696F6E 
 2051              	.LASF55:
 2052 00b1 433A5C55 		.ascii	"C:\\Users\\shkoli\\Downloads\\CE95350\\CE95350.cyds"
 2052      73657273 
 2052      5C73686B 
 2052      6F6C695C 
 2052      446F776E 
 2053 00df 6E5C436F 		.ascii	"n\\Counter01.cydsn\000"
 2053      756E7465 
 2053      7230312E 
 2053      63796473 
 2053      6E00
 2054              	.LASF28:
 2055 00f1 63757272 		.ascii	"current\000"
 2055      656E7400 
 2056              	.LASF30:
 2057 00f9 63686172 		.ascii	"character\000"
 2057      61637465 
ARM GAS  C:\Users\shkoli\AppData\Local\Temp\cc5ETAli.s 			page 50


 2057      7200
 2058              	.LASF37:
 2059 0103 76616C75 		.ascii	"value\000"
 2059      6500
 2060              	.LASF23:
 2061 0109 636F6C75 		.ascii	"column\000"
 2061      6D6E00
 2062              	.LASF40:
 2063 0110 43686172 		.ascii	"CharLCD_1_WrCntrlNib\000"
 2063      4C43445F 
 2063      315F5772 
 2063      436E7472 
 2063      6C4E6962 
 2064              	.LASF6:
 2065 0125 73686F72 		.ascii	"short unsigned int\000"
 2065      7420756E 
 2065      7369676E 
 2065      65642069 
 2065      6E7400
 2066              	.LASF36:
 2067 0138 43686172 		.ascii	"CharLCD_1_IsReady\000"
 2067      4C43445F 
 2067      315F4973 
 2067      52656164 
 2067      7900
 2068              	.LASF22:
 2069 014a 43686172 		.ascii	"CharLCD_1_Stop\000"
 2069      4C43445F 
 2069      315F5374 
 2069      6F7000
 2070              	.LASF27:
 2071 0159 696E6465 		.ascii	"indexU8\000"
 2071      78553800 
 2072              	.LASF26:
 2073 0161 73747269 		.ascii	"string\000"
 2073      6E6700
 2074              	.LASF46:
 2075 0168 43686172 		.ascii	"CharLCD_1_PrintU32Number\000"
 2075      4C43445F 
 2075      315F5072 
 2075      696E7455 
 2075      33324E75 
 2076              	.LASF29:
 2077 0181 43686172 		.ascii	"CharLCD_1_PutChar\000"
 2077      4C43445F 
 2077      315F5075 
 2077      74436861 
 2077      7200
 2078              	.LASF15:
 2079 0193 666C6F61 		.ascii	"float\000"
 2079      7400
 2080              	.LASF4:
 2081 0199 756E7369 		.ascii	"unsigned char\000"
 2081      676E6564 
 2081      20636861 
 2081      7200
 2082              	.LASF34:
ARM GAS  C:\Users\shkoli\AppData\Local\Temp\cc5ETAli.s 			page 51


 2083 01a7 43686172 		.ascii	"CharLCD_1_WriteControl\000"
 2083      4C43445F 
 2083      315F5772 
 2083      69746543 
 2083      6F6E7472 
 2084              	.LASF8:
 2085 01be 6C6F6E67 		.ascii	"long unsigned int\000"
 2085      20756E73 
 2085      69676E65 
 2085      6420696E 
 2085      7400
 2086              	.LASF12:
 2087 01d0 75696E74 		.ascii	"uint8\000"
 2087      3800
 2088              	.LASF44:
 2089 01d6 43686172 		.ascii	"CharLCD_1_PrintInt32\000"
 2089      4C43445F 
 2089      315F5072 
 2089      696E7449 
 2089      6E743332 
 2090              	.LASF52:
 2091 01eb 43686172 		.ascii	"CharLCD_1_customFonts\000"
 2091      4C43445F 
 2091      315F6375 
 2091      73746F6D 
 2091      466F6E74 
 2092              	.LASF16:
 2093 0201 646F7562 		.ascii	"double\000"
 2093      6C6500
 2094              	.LASF13:
 2095 0208 75696E74 		.ascii	"uint16\000"
 2095      313600
 2096              	.LASF39:
 2097 020f 43686172 		.ascii	"CharLCD_1_WrDatNib\000"
 2097      4C43445F 
 2097      315F5772 
 2097      4461744E 
 2097      696200
 2098              	.LASF49:
 2099 0222 64696749 		.ascii	"digIndex\000"
 2099      6E646578 
 2099      00
 2100              	.LASF14:
 2101 022b 75696E74 		.ascii	"uint32\000"
 2101      333200
 2102              	.LASF21:
 2103 0232 43686172 		.ascii	"CharLCD_1_Start\000"
 2103      4C43445F 
 2103      315F5374 
 2103      61727400 
 2104              	.LASF42:
 2105 0242 43686172 		.ascii	"CharLCD_1_hex\000"
 2105      4C43445F 
 2105      315F6865 
 2105      7800
 2106              	.LASF0:
 2107 0250 756E7369 		.ascii	"unsigned int\000"
ARM GAS  C:\Users\shkoli\AppData\Local\Temp\cc5ETAli.s 			page 52


 2107      676E6564 
 2107      20696E74 
 2107      00
 2108              	.LASF31:
 2109 025d 43686172 		.ascii	"CharLCD_1_WriteData\000"
 2109      4C43445F 
 2109      315F5772 
 2109      69746544 
 2109      61746100 
 2110              	.LASF9:
 2111 0271 6C6F6E67 		.ascii	"long long unsigned int\000"
 2111      206C6F6E 
 2111      6720756E 
 2111      7369676E 
 2111      65642069 
 2112              	.LASF48:
 2113 0288 6E756D62 		.ascii	"number\000"
 2113      657200
 2114              	.LASF18:
 2115 028f 72656738 		.ascii	"reg8\000"
 2115      00
 2116              	.LASF24:
 2117 0294 43686172 		.ascii	"CharLCD_1_Position\000"
 2117      4C43445F 
 2117      315F506F 
 2117      73697469 
 2117      6F6E00
 2118              	.LASF17:
 2119 02a7 63686172 		.ascii	"char8\000"
 2119      3800
 2120              	.LASF10:
 2121 02ad 73697A65 		.ascii	"sizetype\000"
 2121      74797065 
 2121      00
 2122              	.LASF1:
 2123 02b6 6C6F6E67 		.ascii	"long long int\000"
 2123      206C6F6E 
 2123      6720696E 
 2123      7400
 2124              	.LASF38:
 2125 02c4 74696D65 		.ascii	"timeout\000"
 2125      6F757400 
 2126              	.LASF50:
 2127 02cc 43686172 		.ascii	"CharLCD_1_initVar\000"
 2127      4C43445F 
 2127      315F696E 
 2127      69745661 
 2127      7200
 2128              	.LASF47:
 2129 02de 746D7044 		.ascii	"tmpDigit\000"
 2129      69676974 
 2129      00
 2130              	.LASF5:
 2131 02e7 73686F72 		.ascii	"short int\000"
 2131      7420696E 
 2131      7400
 2132              	.LASF19:
ARM GAS  C:\Users\shkoli\AppData\Local\Temp\cc5ETAli.s 			page 53


 2133 02f1 43686172 		.ascii	"CharLCD_1_Init\000"
 2133      4C43445F 
 2133      315F496E 
 2133      697400
 2134              	.LASF54:
 2135 0300 47656E65 		.ascii	"Generated_Source\\PSoC5\\CharLCD_1.c\000"
 2135      72617465 
 2135      645F536F 
 2135      75726365 
 2135      5C50536F 
 2136              	.LASF7:
 2137 0323 6C6F6E67 		.ascii	"long int\000"
 2137      20696E74 
 2137      00
 2138              	.LASF11:
 2139 032c 63686172 		.ascii	"char\000"
 2139      00
 2140              	.LASF2:
 2141 0331 6C6F6E67 		.ascii	"long double\000"
 2141      20646F75 
 2141      626C6500 
 2142              	.LASF41:
 2143 033d 43686172 		.ascii	"CharLCD_1_PrintInt8\000"
 2143      4C43445F 
 2143      315F5072 
 2143      696E7449 
 2143      6E743800 
 2144              	.LASF3:
 2145 0351 7369676E 		.ascii	"signed char\000"
 2145      65642063 
 2145      68617200 
 2146              	.LASF32:
 2147 035d 64427974 		.ascii	"dByte\000"
 2147      6500
 2148              	.LASF20:
 2149 0363 43686172 		.ascii	"CharLCD_1_Enable\000"
 2149      4C43445F 
 2149      315F456E 
 2149      61626C65 
 2149      00
 2150              	.LASF51:
 2151 0374 43686172 		.ascii	"CharLCD_1_enableState\000"
 2151      4C43445F 
 2151      315F656E 
 2151      61626C65 
 2151      53746174 
 2152              	.LASF35:
 2153 038a 63427974 		.ascii	"cByte\000"
 2153      6500
 2154              	.LASF43:
 2155 0390 43686172 		.ascii	"CharLCD_1_PrintInt16\000"
 2155      4C43445F 
 2155      315F5072 
 2155      696E7449 
 2155      6E743136 
 2156              		.ident	"GCC: (GNU Tools for ARM Embedded Processors) 5.4.1 20160609 (release) [ARM/embedded-5-bran
