ARM GAS  C:\Users\shkoli\AppData\Local\Temp\ccQFiu6Y.s 			page 1


   1              		.syntax unified
   2              		.cpu cortex-m3
   3              		.fpu softvfp
   4              		.eabi_attribute 20, 1
   5              		.eabi_attribute 21, 1
   6              		.eabi_attribute 23, 3
   7              		.eabi_attribute 24, 1
   8              		.eabi_attribute 25, 1
   9              		.eabi_attribute 26, 1
  10              		.eabi_attribute 30, 6
  11              		.eabi_attribute 34, 1
  12              		.eabi_attribute 18, 4
  13              		.thumb
  14              		.syntax unified
  15              		.file	"CharLCD_1_CustChars.c"
  16              		.text
  17              	.Ltext0:
  18              		.cfi_sections	.debug_frame
  19              		.global	CharLCD_1_customFonts
  20              		.section	.rodata
  21              		.align	2
  22              		.type	CharLCD_1_customFonts, %object
  23              		.size	CharLCD_1_customFonts, 64
  24              	CharLCD_1_customFonts:
  25 0000 00       		.byte	0
  26 0001 0E       		.byte	14
  27 0002 08       		.byte	8
  28 0003 08       		.byte	8
  29 0004 08       		.byte	8
  30 0005 0E       		.byte	14
  31 0006 00       		.byte	0
  32 0007 00       		.byte	0
  33 0008 00       		.byte	0
  34 0009 0A       		.byte	10
  35 000a 0A       		.byte	10
  36 000b 04       		.byte	4
  37 000c 04       		.byte	4
  38 000d 04       		.byte	4
  39 000e 00       		.byte	0
  40 000f 00       		.byte	0
  41 0010 00       		.byte	0
  42 0011 0E       		.byte	14
  43 0012 0A       		.byte	10
  44 0013 0E       		.byte	14
  45 0014 08       		.byte	8
  46 0015 08       		.byte	8
  47 0016 00       		.byte	0
  48 0017 00       		.byte	0
  49 0018 00       		.byte	0
  50 0019 0E       		.byte	14
  51 001a 0A       		.byte	10
  52 001b 0C       		.byte	12
  53 001c 0A       		.byte	10
  54 001d 0A       		.byte	10
  55 001e 00       		.byte	0
  56 001f 00       		.byte	0
  57 0020 00       		.byte	0
ARM GAS  C:\Users\shkoli\AppData\Local\Temp\ccQFiu6Y.s 			page 2


  58 0021 0E       		.byte	14
  59 0022 08       		.byte	8
  60 0023 0C       		.byte	12
  61 0024 08       		.byte	8
  62 0025 0E       		.byte	14
  63 0026 00       		.byte	0
  64 0027 00       		.byte	0
  65 0028 00       		.byte	0
  66 0029 0E       		.byte	14
  67 002a 08       		.byte	8
  68 002b 0E       		.byte	14
  69 002c 02       		.byte	2
  70 002d 0E       		.byte	14
  71 002e 00       		.byte	0
  72 002f 00       		.byte	0
  73 0030 00       		.byte	0
  74 0031 0E       		.byte	14
  75 0032 08       		.byte	8
  76 0033 0E       		.byte	14
  77 0034 02       		.byte	2
  78 0035 0E       		.byte	14
  79 0036 00       		.byte	0
  80 0037 00       		.byte	0
  81 0038 00       		.byte	0
  82 0039 04       		.byte	4
  83 003a 04       		.byte	4
  84 003b 04       		.byte	4
  85 003c 00       		.byte	0
  86 003d 04       		.byte	4
  87 003e 00       		.byte	0
  88 003f 00       		.byte	0
  89              		.section	.text.CharLCD_1_LoadCustomFonts,"ax",%progbits
  90              		.align	2
  91              		.global	CharLCD_1_LoadCustomFonts
  92              		.thumb
  93              		.thumb_func
  94              		.type	CharLCD_1_LoadCustomFonts, %function
  95              	CharLCD_1_LoadCustomFonts:
  96              	.LFB0:
  97              		.file 1 "Generated_Source\\PSoC5\\CharLCD_1_CustChars.c"
   1:Generated_Source\PSoC5/CharLCD_1_CustChars.c **** /*******************************************************************************
   2:Generated_Source\PSoC5/CharLCD_1_CustChars.c **** * File Name: CharLCD_1_CustChars.c
   3:Generated_Source\PSoC5/CharLCD_1_CustChars.c **** * Version 2.20
   4:Generated_Source\PSoC5/CharLCD_1_CustChars.c **** *
   5:Generated_Source\PSoC5/CharLCD_1_CustChars.c **** * Description:
   6:Generated_Source\PSoC5/CharLCD_1_CustChars.c **** *  This file provides the source code for the Character LCD custom character
   7:Generated_Source\PSoC5/CharLCD_1_CustChars.c **** *  API.
   8:Generated_Source\PSoC5/CharLCD_1_CustChars.c **** *
   9:Generated_Source\PSoC5/CharLCD_1_CustChars.c **** * Note:
  10:Generated_Source\PSoC5/CharLCD_1_CustChars.c **** *
  11:Generated_Source\PSoC5/CharLCD_1_CustChars.c **** ********************************************************************************
  12:Generated_Source\PSoC5/CharLCD_1_CustChars.c **** * Copyright 2008-2014, Cypress Semiconductor Corporation.  All rights reserved.
  13:Generated_Source\PSoC5/CharLCD_1_CustChars.c **** * You may use this file only in accordance with the license, terms, conditions,
  14:Generated_Source\PSoC5/CharLCD_1_CustChars.c **** * disclaimers, and limitations in the end user license agreement accompanying
  15:Generated_Source\PSoC5/CharLCD_1_CustChars.c **** * the software package with which this file was provided.
  16:Generated_Source\PSoC5/CharLCD_1_CustChars.c **** *******************************************************************************/
  17:Generated_Source\PSoC5/CharLCD_1_CustChars.c **** 
ARM GAS  C:\Users\shkoli\AppData\Local\Temp\ccQFiu6Y.s 			page 3


  18:Generated_Source\PSoC5/CharLCD_1_CustChars.c **** #include "CharLCD_1.h"
  19:Generated_Source\PSoC5/CharLCD_1_CustChars.c **** 
  20:Generated_Source\PSoC5/CharLCD_1_CustChars.c **** 
  21:Generated_Source\PSoC5/CharLCD_1_CustChars.c **** uint8 const CYCODE CharLCD_1_customFonts[] = \
  22:Generated_Source\PSoC5/CharLCD_1_CustChars.c **** {
  23:Generated_Source\PSoC5/CharLCD_1_CustChars.c ****     /* Character CharLCD_1_CUSTOM_0   */
  24:Generated_Source\PSoC5/CharLCD_1_CustChars.c ****         0x00u,    0x0Eu,    0x08u,    0x08u,    0x08u,    0x0Eu,    0x00u,    0x00u, \
  25:Generated_Source\PSoC5/CharLCD_1_CustChars.c ****     /* Character CharLCD_1_CUSTOM_1   */
  26:Generated_Source\PSoC5/CharLCD_1_CustChars.c ****         0x00u,    0x0Au,    0x0Au,    0x04u,    0x04u,    0x04u,    0x00u,    0x00u, \
  27:Generated_Source\PSoC5/CharLCD_1_CustChars.c ****     /* Character CharLCD_1_CUSTOM_2   */
  28:Generated_Source\PSoC5/CharLCD_1_CustChars.c ****         0x00u,    0x0Eu,    0x0Au,    0x0Eu,    0x08u,    0x08u,    0x00u,    0x00u, \
  29:Generated_Source\PSoC5/CharLCD_1_CustChars.c ****     /* Character CharLCD_1_CUSTOM_3   */
  30:Generated_Source\PSoC5/CharLCD_1_CustChars.c ****         0x00u,    0x0Eu,    0x0Au,    0x0Cu,    0x0Au,    0x0Au,    0x00u,    0x00u, \
  31:Generated_Source\PSoC5/CharLCD_1_CustChars.c ****     /* Character CharLCD_1_CUSTOM_4   */
  32:Generated_Source\PSoC5/CharLCD_1_CustChars.c ****         0x00u,    0x0Eu,    0x08u,    0x0Cu,    0x08u,    0x0Eu,    0x00u,    0x00u, \
  33:Generated_Source\PSoC5/CharLCD_1_CustChars.c ****     /* Character CharLCD_1_CUSTOM_5   */
  34:Generated_Source\PSoC5/CharLCD_1_CustChars.c ****         0x00u,    0x0Eu,    0x08u,    0x0Eu,    0x02u,    0x0Eu,    0x00u,    0x00u, \
  35:Generated_Source\PSoC5/CharLCD_1_CustChars.c ****     /* Character CharLCD_1_CUSTOM_6   */
  36:Generated_Source\PSoC5/CharLCD_1_CustChars.c ****         0x00u,    0x0Eu,    0x08u,    0x0Eu,    0x02u,    0x0Eu,    0x00u,    0x00u, \
  37:Generated_Source\PSoC5/CharLCD_1_CustChars.c ****     /* Character CharLCD_1_CUSTOM_7   */
  38:Generated_Source\PSoC5/CharLCD_1_CustChars.c ****         0x00u,    0x04u,    0x04u,    0x04u,    0x00u,    0x04u,    0x00u,    0x00u \
  39:Generated_Source\PSoC5/CharLCD_1_CustChars.c ****  };
  40:Generated_Source\PSoC5/CharLCD_1_CustChars.c **** 
  41:Generated_Source\PSoC5/CharLCD_1_CustChars.c **** 
  42:Generated_Source\PSoC5/CharLCD_1_CustChars.c **** /*******************************************************************************
  43:Generated_Source\PSoC5/CharLCD_1_CustChars.c **** * Function Name: CharLCD_1_LoadCustomFonts
  44:Generated_Source\PSoC5/CharLCD_1_CustChars.c **** ********************************************************************************
  45:Generated_Source\PSoC5/CharLCD_1_CustChars.c **** *
  46:Generated_Source\PSoC5/CharLCD_1_CustChars.c **** * Summary:
  47:Generated_Source\PSoC5/CharLCD_1_CustChars.c **** *  Loads 8 custom font characters into the LCD Module for use.  Cannot use
  48:Generated_Source\PSoC5/CharLCD_1_CustChars.c **** *  characters from two different font sets at once, but font sets can be
  49:Generated_Source\PSoC5/CharLCD_1_CustChars.c **** *  switched out during runtime.
  50:Generated_Source\PSoC5/CharLCD_1_CustChars.c **** *
  51:Generated_Source\PSoC5/CharLCD_1_CustChars.c **** * Parameters:
  52:Generated_Source\PSoC5/CharLCD_1_CustChars.c **** *  customData:  pointer to a constant array of 64 bytes representing 8 custom
  53:Generated_Source\PSoC5/CharLCD_1_CustChars.c **** *               font characters.
  54:Generated_Source\PSoC5/CharLCD_1_CustChars.c **** * Return:
  55:Generated_Source\PSoC5/CharLCD_1_CustChars.c **** *  None.
  56:Generated_Source\PSoC5/CharLCD_1_CustChars.c **** *
  57:Generated_Source\PSoC5/CharLCD_1_CustChars.c **** * Theory:
  58:Generated_Source\PSoC5/CharLCD_1_CustChars.c **** *  Prior to using this function user need to import the pointer to custom
  59:Generated_Source\PSoC5/CharLCD_1_CustChars.c **** *  font array to your project by writting the following in the source code file
  60:Generated_Source\PSoC5/CharLCD_1_CustChars.c **** *  where custom font will be used:
  61:Generated_Source\PSoC5/CharLCD_1_CustChars.c **** *       extern uint8 const CYCODE LCD_Char_customFonts[];
  62:Generated_Source\PSoC5/CharLCD_1_CustChars.c **** *  This function is not automatically called by the Start() routine and must be
  63:Generated_Source\PSoC5/CharLCD_1_CustChars.c **** *  called manually by the user.
  64:Generated_Source\PSoC5/CharLCD_1_CustChars.c **** *
  65:Generated_Source\PSoC5/CharLCD_1_CustChars.c **** *******************************************************************************/
  66:Generated_Source\PSoC5/CharLCD_1_CustChars.c **** void CharLCD_1_LoadCustomFonts(uint8 const customData[]) 
  67:Generated_Source\PSoC5/CharLCD_1_CustChars.c **** {
  98              		.loc 1 67 0
  99              		.cfi_startproc
 100              		@ args = 0, pretend = 0, frame = 16
 101              		@ frame_needed = 1, uses_anonymous_args = 0
 102 0000 80B5     		push	{r7, lr}
 103              		.cfi_def_cfa_offset 8
 104              		.cfi_offset 7, -8
ARM GAS  C:\Users\shkoli\AppData\Local\Temp\ccQFiu6Y.s 			page 4


 105              		.cfi_offset 14, -4
 106 0002 84B0     		sub	sp, sp, #16
 107              		.cfi_def_cfa_offset 24
 108 0004 00AF     		add	r7, sp, #0
 109              		.cfi_def_cfa_register 7
 110 0006 7860     		str	r0, [r7, #4]
  68:Generated_Source\PSoC5/CharLCD_1_CustChars.c ****     uint8 indexU8;
  69:Generated_Source\PSoC5/CharLCD_1_CustChars.c **** 
  70:Generated_Source\PSoC5/CharLCD_1_CustChars.c ****     CharLCD_1_IsReady();
 111              		.loc 1 70 0
 112 0008 FFF7FEFF 		bl	CharLCD_1_IsReady
  71:Generated_Source\PSoC5/CharLCD_1_CustChars.c **** 
  72:Generated_Source\PSoC5/CharLCD_1_CustChars.c ****     /* Set starting address in the LCD Module.
  73:Generated_Source\PSoC5/CharLCD_1_CustChars.c ****     * Optionally: Read the current address to restore at a later time.
  74:Generated_Source\PSoC5/CharLCD_1_CustChars.c ****     */
  75:Generated_Source\PSoC5/CharLCD_1_CustChars.c ****     CharLCD_1_WriteControl(CharLCD_1_CGRAM_0);
 113              		.loc 1 75 0
 114 000c 4020     		movs	r0, #64
 115 000e FFF7FEFF 		bl	CharLCD_1_WriteControl
  76:Generated_Source\PSoC5/CharLCD_1_CustChars.c **** 
  77:Generated_Source\PSoC5/CharLCD_1_CustChars.c ****     /* Load in the 64 bytes of CustomChar Data */
  78:Generated_Source\PSoC5/CharLCD_1_CustChars.c ****     for(indexU8 = 0u; indexU8 < CharLCD_1_CUSTOM_CHAR_SET_LEN; indexU8++)
 116              		.loc 1 78 0
 117 0012 0023     		movs	r3, #0
 118 0014 FB73     		strb	r3, [r7, #15]
 119 0016 09E0     		b	.L2
 120              	.L3:
  79:Generated_Source\PSoC5/CharLCD_1_CustChars.c ****     {
  80:Generated_Source\PSoC5/CharLCD_1_CustChars.c ****         CharLCD_1_WriteData(customData[indexU8]);
 121              		.loc 1 80 0 discriminator 3
 122 0018 FB7B     		ldrb	r3, [r7, #15]	@ zero_extendqisi2
 123 001a 7A68     		ldr	r2, [r7, #4]
 124 001c 1344     		add	r3, r3, r2
 125 001e 1B78     		ldrb	r3, [r3]	@ zero_extendqisi2
 126 0020 1846     		mov	r0, r3
 127 0022 FFF7FEFF 		bl	CharLCD_1_WriteData
  78:Generated_Source\PSoC5/CharLCD_1_CustChars.c ****     {
 128              		.loc 1 78 0 discriminator 3
 129 0026 FB7B     		ldrb	r3, [r7, #15]	@ zero_extendqisi2
 130 0028 0133     		adds	r3, r3, #1
 131 002a FB73     		strb	r3, [r7, #15]
 132              	.L2:
  78:Generated_Source\PSoC5/CharLCD_1_CustChars.c ****     {
 133              		.loc 1 78 0 is_stmt 0 discriminator 1
 134 002c FB7B     		ldrb	r3, [r7, #15]	@ zero_extendqisi2
 135 002e 3F2B     		cmp	r3, #63
 136 0030 F2D9     		bls	.L3
  81:Generated_Source\PSoC5/CharLCD_1_CustChars.c ****     }
  82:Generated_Source\PSoC5/CharLCD_1_CustChars.c **** 
  83:Generated_Source\PSoC5/CharLCD_1_CustChars.c ****     CharLCD_1_IsReady();
 137              		.loc 1 83 0 is_stmt 1
 138 0032 FFF7FEFF 		bl	CharLCD_1_IsReady
  84:Generated_Source\PSoC5/CharLCD_1_CustChars.c ****     CharLCD_1_WriteControl(CharLCD_1_DDRAM_0);
 139              		.loc 1 84 0
 140 0036 8020     		movs	r0, #128
 141 0038 FFF7FEFF 		bl	CharLCD_1_WriteControl
  85:Generated_Source\PSoC5/CharLCD_1_CustChars.c **** }
ARM GAS  C:\Users\shkoli\AppData\Local\Temp\ccQFiu6Y.s 			page 5


 142              		.loc 1 85 0
 143 003c 00BF     		nop
 144 003e 1037     		adds	r7, r7, #16
 145              		.cfi_def_cfa_offset 8
 146 0040 BD46     		mov	sp, r7
 147              		.cfi_def_cfa_register 13
 148              		@ sp needed
 149 0042 80BD     		pop	{r7, pc}
 150              		.cfi_endproc
 151              	.LFE0:
 152              		.size	CharLCD_1_LoadCustomFonts, .-CharLCD_1_LoadCustomFonts
 153              		.text
 154              	.Letext0:
 155              		.file 2 "Generated_Source\\PSoC5\\cytypes.h"